(dp1
S'OriginalConfig'
p2
ccopy_reg
_reconstructor
p3
(cWMCore.Configuration
Configuration
p4
c__builtin__
object
p5
NtRp6
(dp7
S'Site'
p8
g3
(cWMCore.Configuration
ConfigSection
p9
g5
NtRp10
(dp11
S'_internal_skipChecks'
p12
I00
sS'_internal_documentation'
p13
S''
sS'_internal_settings'
p14
c__builtin__
set
p15
((lp16
S'storageSite'
p17
atRp18
sS'_internal_name'
p19
g8
sS'_internal_docstrings'
p20
(dp21
sS'_internal_children'
p22
g15
((ltRp23
sg17
S'T2_CH_CERN'
p24
sS'_internal_parent_ref'
p25
NsbsS'_internal_sections'
p26
(lp27
S'General'
p28
aS'JobType'
p29
aS'Data'
p30
ag8
aS'User'
p31
aS'Debug'
p32
asg28
g3
(g9
g5
NtRp33
(dp34
S'workArea'
p35
S'crab_2018Data_1'
p36
sg12
I00
sg13
S''
sg14
g15
((lp37
g35
aS'transferLogs'
p38
aS'requestName'
p39
atRp40
sg19
g28
sg20
(dp41
sg22
g15
((ltRp42
sg39
S'Prompt2018_RunD_v2'
p43
sg25
Nsg38
I00
sbsS'_internal_webapps'
p44
(lp45
sg31
g3
(g9
g5
NtRp46
(dp47
g12
I00
sg13
S''
sg14
g15
((ltRp48
sg19
g31
sg20
(dp49
sg22
g15
((ltRp50
sg25
NsbsS'_internal_components'
p51
(lp52
sg32
g3
(g9
g5
NtRp53
(dp54
g12
I00
sg13
S''
sg14
g15
((ltRp55
sg19
g32
sg20
(dp56
sg22
g15
((ltRp57
sg25
Nsbsg30
g3
(g9
g5
NtRp58
(dp59
S'inputDataset'
p60
S'/EGamma/Run2018D-PromptReco-v2/AOD'
p61
sS'allowNonValidInputDataset'
p62
I01
sg12
I00
sS'splitting'
p63
S'LumiBased'
p64
sS'unitsPerJob'
p65
I20
sg13
S''
sg14
g15
((lp66
g60
ag62
aS'publication'
p67
ag65
aS'outLFNDirBase'
p68
ag63
aS'lumiMask'
p69
aS'inputDBS'
p70
atRp71
sg19
g30
sg70
S'global'
p72
sg20
(dp73
sg22
g15
((ltRp74
sg68
S'/store/group/phys_egamma/soffi/TnP/ntuples_20180920/2018Data_1/data/'
p75
sg25
Nsg69
S'/afs/cern.ch/cms/CAF/CMSCOMM/COMM_DQM/certification/Collisions18/13TeV/PromptReco/Cert_314472-322057_13TeV_PromptReco_Collisions18_JSON.txt'
p76
sg67
I00
sbsg29
g3
(g9
g5
NtRp77
(dp78
g12
I00
sS'pyCfgParams'
p79
(lp80
S'isMC=False'
p81
aS'doEleID=True'
p82
aS'doPhoID=True'
p83
aS'doTrigger=True'
p84
aS'doRECO=True'
p85
aS'isAOD=True'
p86
aS'GT=101X_dataRun2_Prompt_v9'
p87
asg13
S''
sg14
g15
((lp88
S'psetName'
p89
aS'pluginName'
p90
ag79
aS'sendExternalFolder'
p91
atRp92
sg19
g29
sg20
(dp93
sg90
S'Analysis'
p94
sg22
g15
((ltRp95
sg89
S'/afs/cern.ch/work/s/soffi/EGM-WORK/CMSSW-102502018DataTnP/src/EgammaAnalysis/TnPTreeProducer/python/TnPTreeProducer_cfg.py'
p96
sg25
Nsg91
I01
sbsbsS'voGroup'
p97
S''
sS'Server'
p98
S'cmsweb.cern.ch'
p99
sS'instance'
p100
S'prod'
p101
sS'RequestName'
p102
V180920_072136:soffi_crab_Prompt2018_RunD_v2
p103
sS'voRole'
p104
S'NULL'
p105
sS'Port'
p106
S''
s.