(dp1
S'OriginalConfig'
p2
ccopy_reg
_reconstructor
p3
(cWMCore.Configuration
Configuration
p4
c__builtin__
object
p5
NtRp6
(dp7
S'Site'
p8
g3
(cWMCore.Configuration
ConfigSection
p9
g5
NtRp10
(dp11
S'_internal_skipChecks'
p12
I00
sS'_internal_documentation'
p13
S''
sS'_internal_settings'
p14
c__builtin__
set
p15
((lp16
S'storageSite'
p17
atRp18
sS'_internal_name'
p19
g8
sS'_internal_docstrings'
p20
(dp21
sS'_internal_children'
p22
g15
((ltRp23
sg17
S'T2_CH_CERN'
p24
sS'_internal_parent_ref'
p25
NsbsS'_internal_sections'
p26
(lp27
S'General'
p28
aS'JobType'
p29
aS'Data'
p30
ag8
aS'User'
p31
aS'Debug'
p32
asg28
g3
(g9
g5
NtRp33
(dp34
S'workArea'
p35
S'crab_2018Data_1'
p36
sg12
I00
sg13
S''
sg14
g15
((lp37
g35
aS'transferLogs'
p38
aS'requestName'
p39
atRp40
sg19
g28
sg20
(dp41
sg22
g15
((ltRp42
sg39
S'DYToEE_M-50_NNPDF31_TuneCP5_13TeV-powheg-pythia8-AOD'
p43
sg25
Nsg38
I00
sbsS'_internal_webapps'
p44
(lp45
sg31
g3
(g9
g5
NtRp46
(dp47
g12
I00
sg13
S''
sg14
g15
((ltRp48
sg19
g31
sg20
(dp49
sg22
g15
((ltRp50
sg25
NsbsS'_internal_components'
p51
(lp52
sg32
g3
(g9
g5
NtRp53
(dp54
g12
I00
sg13
S''
sg14
g15
((ltRp55
sg19
g32
sg20
(dp56
sg22
g15
((ltRp57
sg25
Nsbsg30
g3
(g9
g5
NtRp58
(dp59
S'allowNonValidInputDataset'
p60
I01
sg12
I00
sS'splitting'
p61
S'FileBased'
p62
sS'unitsPerJob'
p63
I1
sg13
S''
sg14
g15
((lp64
g60
aS'publication'
p65
ag63
aS'userInputFiles'
p66
ag61
aS'inputDBS'
p67
aS'outLFNDirBase'
p68
atRp69
sg19
g30
sg67
S'global'
p70
sg20
(dp71
sg22
g15
((ltRp72
sg68
S'/store/group/phys_egamma/soffi/TnP/ntuples_20180920/2018Data_1/mc/'
p73
sg25
Nsg66
(lp74
S'/store/mc/RunIIFall18DRPremix/DYToEE_M-50_NNPDF31_TuneCP5_13TeV-powheg-pythia8/AODSIM/102X_upgrade2018_realistic_v11-v1/100000/8278669C-F922-4B47-B704-533F839B5DF4.root'
p75
aS'/store/mc/RunIIFall18DRPremix/DYToEE_M-50_NNPDF31_TuneCP5_13TeV-powheg-pythia8/AODSIM/102X_upgrade2018_realistic_v11-v1/100000/8D464561-ECE8-014D-B00E-B76B5CEC514D.root'
p76
aS'/store/mc/RunIIFall18DRPremix/DYToEE_M-50_NNPDF31_TuneCP5_13TeV-powheg-pythia8/AODSIM/102X_upgrade2018_realistic_v11-v1/100000/E1D4C289-963E-4B40-B314-4A048CEE8C92.root'
p77
aS'/store/mc/RunIIFall18DRPremix/DYToEE_M-50_NNPDF31_TuneCP5_13TeV-powheg-pythia8/AODSIM/102X_upgrade2018_realistic_v11-v1/100000/E19AD548-0404-9F41-87D0-87493E0A8223.root'
p78
aS'/store/mc/RunIIFall18DRPremix/DYToEE_M-50_NNPDF31_TuneCP5_13TeV-powheg-pythia8/AODSIM/102X_upgrade2018_realistic_v11-v1/100000/7C2FEEA2-282B-F843-AB53-87C2FECFFE9C.root'
p79
aS'/store/mc/RunIIFall18DRPremix/DYToEE_M-50_NNPDF31_TuneCP5_13TeV-powheg-pythia8/AODSIM/102X_upgrade2018_realistic_v11-v1/100000/48F9B1B3-2E69-D240-AE92-8E3117D4DA04.root'
p80
aS'/store/mc/RunIIFall18DRPremix/DYToEE_M-50_NNPDF31_TuneCP5_13TeV-powheg-pythia8/AODSIM/102X_upgrade2018_realistic_v11-v1/100000/7DBEA18E-0ED4-A240-BECF-554719987013.root'
p81
aS'/store/mc/RunIIFall18DRPremix/DYToEE_M-50_NNPDF31_TuneCP5_13TeV-powheg-pythia8/AODSIM/102X_upgrade2018_realistic_v11-v1/100000/F0EF85CE-4F8E-544B-9C97-615EE6FC44C9.root'
p82
aS'/store/mc/RunIIFall18DRPremix/DYToEE_M-50_NNPDF31_TuneCP5_13TeV-powheg-pythia8/AODSIM/102X_upgrade2018_realistic_v11-v1/100000/DF465B1C-F370-4349-B727-456EF47F4058.root'
p83
aS'/store/mc/RunIIFall18DRPremix/DYToEE_M-50_NNPDF31_TuneCP5_13TeV-powheg-pythia8/AODSIM/102X_upgrade2018_realistic_v11-v1/100000/8F21E261-AC5B-C24F-953B-1D09553BA98B.root'
p84
aS'/store/mc/RunIIFall18DRPremix/DYToEE_M-50_NNPDF31_TuneCP5_13TeV-powheg-pythia8/AODSIM/102X_upgrade2018_realistic_v11-v1/100000/B76688D4-FCF6-8045-8176-2C6AC8FC52E0.root'
p85
aS'/store/mc/RunIIFall18DRPremix/DYToEE_M-50_NNPDF31_TuneCP5_13TeV-powheg-pythia8/AODSIM/102X_upgrade2018_realistic_v11-v1/100000/2A900E33-E26E-0D49-963C-09AF6D5A0CBC.root'
p86
aS'/store/mc/RunIIFall18DRPremix/DYToEE_M-50_NNPDF31_TuneCP5_13TeV-powheg-pythia8/AODSIM/102X_upgrade2018_realistic_v11-v1/100000/97FC6358-96A8-8247-8227-087188D86272.root'
p87
aS'/store/mc/RunIIFall18DRPremix/DYToEE_M-50_NNPDF31_TuneCP5_13TeV-powheg-pythia8/AODSIM/102X_upgrade2018_realistic_v11-v1/100000/444AD706-DFD8-3A4E-91D5-60CBCDE7726D.root'
p88
aS'/store/mc/RunIIFall18DRPremix/DYToEE_M-50_NNPDF31_TuneCP5_13TeV-powheg-pythia8/AODSIM/102X_upgrade2018_realistic_v11-v1/100000/91649812-4816-D24C-9513-CECF13A26F66.root'
p89
aS'/store/mc/RunIIFall18DRPremix/DYToEE_M-50_NNPDF31_TuneCP5_13TeV-powheg-pythia8/AODSIM/102X_upgrade2018_realistic_v11-v1/100000/75610CED-7FBC-524A-A143-07B152C4594C.root'
p90
aS'/store/mc/RunIIFall18DRPremix/DYToEE_M-50_NNPDF31_TuneCP5_13TeV-powheg-pythia8/AODSIM/102X_upgrade2018_realistic_v11-v1/100000/67452451-8E44-BD49-8ECF-0CC6F7055FA7.root'
p91
aS'/store/mc/RunIIFall18DRPremix/DYToEE_M-50_NNPDF31_TuneCP5_13TeV-powheg-pythia8/AODSIM/102X_upgrade2018_realistic_v11-v1/100000/3B041BD5-9D18-BD46-A26F-341E1ED1B2C2.root'
p92
aS'/store/mc/RunIIFall18DRPremix/DYToEE_M-50_NNPDF31_TuneCP5_13TeV-powheg-pythia8/AODSIM/102X_upgrade2018_realistic_v11-v1/100000/018BFD27-16D3-5B4F-8821-E7CA4E36D4E5.root'
p93
aS'/store/mc/RunIIFall18DRPremix/DYToEE_M-50_NNPDF31_TuneCP5_13TeV-powheg-pythia8/AODSIM/102X_upgrade2018_realistic_v11-v1/100000/C2A23F7B-A697-834D-B8DA-FE9E3E7E0887.root'
p94
aS'/store/mc/RunIIFall18DRPremix/DYToEE_M-50_NNPDF31_TuneCP5_13TeV-powheg-pythia8/AODSIM/102X_upgrade2018_realistic_v11-v1/100000/36487E09-0CB6-C144-80A4-0F636BE44F0F.root'
p95
aS'/store/mc/RunIIFall18DRPremix/DYToEE_M-50_NNPDF31_TuneCP5_13TeV-powheg-pythia8/AODSIM/102X_upgrade2018_realistic_v11-v1/100000/9C69B85C-55C1-9940-89B6-07A5D80061E6.root'
p96
aS'/store/mc/RunIIFall18DRPremix/DYToEE_M-50_NNPDF31_TuneCP5_13TeV-powheg-pythia8/AODSIM/102X_upgrade2018_realistic_v11-v1/100000/2A85F14C-3151-B443-86D7-FB9E9F6A3FCA.root'
p97
aS'/store/mc/RunIIFall18DRPremix/DYToEE_M-50_NNPDF31_TuneCP5_13TeV-powheg-pythia8/AODSIM/102X_upgrade2018_realistic_v11-v1/100000/5E710435-5056-8F40-ADF4-BE716D29E336.root'
p98
aS'/store/mc/RunIIFall18DRPremix/DYToEE_M-50_NNPDF31_TuneCP5_13TeV-powheg-pythia8/AODSIM/102X_upgrade2018_realistic_v11-v1/100000/3A9EB10D-F397-F649-A286-3779A091CA2F.root'
p99
aS'/store/mc/RunIIFall18DRPremix/DYToEE_M-50_NNPDF31_TuneCP5_13TeV-powheg-pythia8/AODSIM/102X_upgrade2018_realistic_v11-v1/100000/2BDF2E05-B50C-544C-9BCA-0C5F0BF936EF.root'
p100
aS'/store/mc/RunIIFall18DRPremix/DYToEE_M-50_NNPDF31_TuneCP5_13TeV-powheg-pythia8/AODSIM/102X_upgrade2018_realistic_v11-v1/100000/7C6532A6-FB46-8648-BC02-4FD00C8D0BB5.root'
p101
aS'/store/mc/RunIIFall18DRPremix/DYToEE_M-50_NNPDF31_TuneCP5_13TeV-powheg-pythia8/AODSIM/102X_upgrade2018_realistic_v11-v1/100000/BDA27404-F442-0740-965A-D51C9D5A2F8A.root'
p102
aS'/store/mc/RunIIFall18DRPremix/DYToEE_M-50_NNPDF31_TuneCP5_13TeV-powheg-pythia8/AODSIM/102X_upgrade2018_realistic_v11-v1/100001/B79EFB07-BD68-DE49-975F-B13DBA1E3A34.root'
p103
aS'/store/mc/RunIIFall18DRPremix/DYToEE_M-50_NNPDF31_TuneCP5_13TeV-powheg-pythia8/AODSIM/102X_upgrade2018_realistic_v11-v1/100001/225CBDD7-37B4-0749-9287-402764BF4D87.root'
p104
aS'/store/mc/RunIIFall18DRPremix/DYToEE_M-50_NNPDF31_TuneCP5_13TeV-powheg-pythia8/AODSIM/102X_upgrade2018_realistic_v11-v1/100000/4AE98BF8-8FED-CC47-8B95-1CB9BC2D7C08.root'
p105
aS'/store/mc/RunIIFall18DRPremix/DYToEE_M-50_NNPDF31_TuneCP5_13TeV-powheg-pythia8/AODSIM/102X_upgrade2018_realistic_v11-v1/100001/8D13E0EA-FB48-D445-B965-CAC9D2C545BC.root'
p106
aS'/store/mc/RunIIFall18DRPremix/DYToEE_M-50_NNPDF31_TuneCP5_13TeV-powheg-pythia8/AODSIM/102X_upgrade2018_realistic_v11-v1/100000/C1D4B96E-58C4-1D45-853A-CD759A90443C.root'
p107
aS'/store/mc/RunIIFall18DRPremix/DYToEE_M-50_NNPDF31_TuneCP5_13TeV-powheg-pythia8/AODSIM/102X_upgrade2018_realistic_v11-v1/100001/334CA196-2342-2D42-A07F-6FB641894855.root'
p108
aS'/store/mc/RunIIFall18DRPremix/DYToEE_M-50_NNPDF31_TuneCP5_13TeV-powheg-pythia8/AODSIM/102X_upgrade2018_realistic_v11-v1/100001/90803000-76ED-084E-897B-2CD1E9BD19ED.root'
p109
aS'/store/mc/RunIIFall18DRPremix/DYToEE_M-50_NNPDF31_TuneCP5_13TeV-powheg-pythia8/AODSIM/102X_upgrade2018_realistic_v11-v1/100001/0EC2A597-715D-3A4A-8C4F-331B6C8CCEAC.root'
p110
aS'/store/mc/RunIIFall18DRPremix/DYToEE_M-50_NNPDF31_TuneCP5_13TeV-powheg-pythia8/AODSIM/102X_upgrade2018_realistic_v11-v1/100000/6F122630-740F-D547-AC72-B72A4A59FFB4.root'
p111
aS'/store/mc/RunIIFall18DRPremix/DYToEE_M-50_NNPDF31_TuneCP5_13TeV-powheg-pythia8/AODSIM/102X_upgrade2018_realistic_v11-v1/100000/3FAAE79E-6786-E24E-A5EC-8561EE8FFADF.root'
p112
aS'/store/mc/RunIIFall18DRPremix/DYToEE_M-50_NNPDF31_TuneCP5_13TeV-powheg-pythia8/AODSIM/102X_upgrade2018_realistic_v11-v1/100000/AB39ACF6-27AF-9B49-8645-052342C462E2.root'
p113
aS'/store/mc/RunIIFall18DRPremix/DYToEE_M-50_NNPDF31_TuneCP5_13TeV-powheg-pythia8/AODSIM/102X_upgrade2018_realistic_v11-v1/100000/61BCA794-8036-2F4D-B141-866DD413F146.root'
p114
aS'/store/mc/RunIIFall18DRPremix/DYToEE_M-50_NNPDF31_TuneCP5_13TeV-powheg-pythia8/AODSIM/102X_upgrade2018_realistic_v11-v1/100000/7A3A5D40-47D9-F444-A199-04F646DCE3CA.root'
p115
aS'/store/mc/RunIIFall18DRPremix/DYToEE_M-50_NNPDF31_TuneCP5_13TeV-powheg-pythia8/AODSIM/102X_upgrade2018_realistic_v11-v1/100000/34D1EB9B-8418-D94F-B34E-BEB9EFC44F9A.root'
p116
aS'/store/mc/RunIIFall18DRPremix/DYToEE_M-50_NNPDF31_TuneCP5_13TeV-powheg-pythia8/AODSIM/102X_upgrade2018_realistic_v11-v1/100000/87B1C758-7481-4C41-8198-B95CE9B14501.root'
p117
aS'/store/mc/RunIIFall18DRPremix/DYToEE_M-50_NNPDF31_TuneCP5_13TeV-powheg-pythia8/AODSIM/102X_upgrade2018_realistic_v11-v1/100000/83E6E127-93DB-474B-80A0-D200F45A00B1.root'
p118
aS'/store/mc/RunIIFall18DRPremix/DYToEE_M-50_NNPDF31_TuneCP5_13TeV-powheg-pythia8/AODSIM/102X_upgrade2018_realistic_v11-v1/100000/8809EBD3-B410-3D44-849C-41FDE334BC3A.root'
p119
aS'/store/mc/RunIIFall18DRPremix/DYToEE_M-50_NNPDF31_TuneCP5_13TeV-powheg-pythia8/AODSIM/102X_upgrade2018_realistic_v11-v1/100000/ED4F8EBB-F044-1A4B-87FA-A103F324E416.root'
p120
aS'/store/mc/RunIIFall18DRPremix/DYToEE_M-50_NNPDF31_TuneCP5_13TeV-powheg-pythia8/AODSIM/102X_upgrade2018_realistic_v11-v1/100000/49F36910-35D3-B24D-AE8D-4089BA419309.root'
p121
aS'/store/mc/RunIIFall18DRPremix/DYToEE_M-50_NNPDF31_TuneCP5_13TeV-powheg-pythia8/AODSIM/102X_upgrade2018_realistic_v11-v1/100000/AE462F3D-99B7-FC48-8E15-F25AF95C0D9F.root'
p122
aS'/store/mc/RunIIFall18DRPremix/DYToEE_M-50_NNPDF31_TuneCP5_13TeV-powheg-pythia8/AODSIM/102X_upgrade2018_realistic_v11-v1/100000/666F4E69-D8CF-6040-8D81-AF6B160F618F.root'
p123
aS'/store/mc/RunIIFall18DRPremix/DYToEE_M-50_NNPDF31_TuneCP5_13TeV-powheg-pythia8/AODSIM/102X_upgrade2018_realistic_v11-v1/100000/CBD12A4C-4122-7343-9B49-736539850AF4.root'
p124
aS'/store/mc/RunIIFall18DRPremix/DYToEE_M-50_NNPDF31_TuneCP5_13TeV-powheg-pythia8/AODSIM/102X_upgrade2018_realistic_v11-v1/100000/C7472EA4-6B60-3A40-8419-70655BDC6F4A.root'
p125
aS'/store/mc/RunIIFall18DRPremix/DYToEE_M-50_NNPDF31_TuneCP5_13TeV-powheg-pythia8/AODSIM/102X_upgrade2018_realistic_v11-v1/100000/AA424F26-B879-4D48-81C7-C97A0CF20FF9.root'
p126
aS'/store/mc/RunIIFall18DRPremix/DYToEE_M-50_NNPDF31_TuneCP5_13TeV-powheg-pythia8/AODSIM/102X_upgrade2018_realistic_v11-v1/100000/518AF8A8-E10C-B246-8A34-2E570DF43B61.root'
p127
aS'/store/mc/RunIIFall18DRPremix/DYToEE_M-50_NNPDF31_TuneCP5_13TeV-powheg-pythia8/AODSIM/102X_upgrade2018_realistic_v11-v1/100000/D4DB6045-872A-104A-B3BC-88BEDC428C57.root'
p128
aS'/store/mc/RunIIFall18DRPremix/DYToEE_M-50_NNPDF31_TuneCP5_13TeV-powheg-pythia8/AODSIM/102X_upgrade2018_realistic_v11-v1/100000/A0B57763-7209-5F45-B32D-587758445FFC.root'
p129
aS'/store/mc/RunIIFall18DRPremix/DYToEE_M-50_NNPDF31_TuneCP5_13TeV-powheg-pythia8/AODSIM/102X_upgrade2018_realistic_v11-v1/100000/B349D440-9D79-6B47-9C89-6B432A89C2DB.root'
p130
aS'/store/mc/RunIIFall18DRPremix/DYToEE_M-50_NNPDF31_TuneCP5_13TeV-powheg-pythia8/AODSIM/102X_upgrade2018_realistic_v11-v1/100000/5C4872A4-39AE-8A42-AA17-E6FFBF2F093F.root'
p131
aS'/store/mc/RunIIFall18DRPremix/DYToEE_M-50_NNPDF31_TuneCP5_13TeV-powheg-pythia8/AODSIM/102X_upgrade2018_realistic_v11-v1/100000/506B431C-402F-3E40-84A0-A129223927D5.root'
p132
aS'/store/mc/RunIIFall18DRPremix/DYToEE_M-50_NNPDF31_TuneCP5_13TeV-powheg-pythia8/AODSIM/102X_upgrade2018_realistic_v11-v1/100000/335D0CB9-8723-C24C-9C81-052535F9C396.root'
p133
aS'/store/mc/RunIIFall18DRPremix/DYToEE_M-50_NNPDF31_TuneCP5_13TeV-powheg-pythia8/AODSIM/102X_upgrade2018_realistic_v11-v1/100000/4C94E153-299F-C546-9B07-9CE5D381D29A.root'
p134
aS'/store/mc/RunIIFall18DRPremix/DYToEE_M-50_NNPDF31_TuneCP5_13TeV-powheg-pythia8/AODSIM/102X_upgrade2018_realistic_v11-v1/100000/13688F67-2DF5-5045-83B8-30F5F9785ED8.root'
p135
aS'/store/mc/RunIIFall18DRPremix/DYToEE_M-50_NNPDF31_TuneCP5_13TeV-powheg-pythia8/AODSIM/102X_upgrade2018_realistic_v11-v1/100000/38FEEC65-3B1F-3D46-848D-89AFEBECEF08.root'
p136
aS'/store/mc/RunIIFall18DRPremix/DYToEE_M-50_NNPDF31_TuneCP5_13TeV-powheg-pythia8/AODSIM/102X_upgrade2018_realistic_v11-v1/100000/A8AC4404-66B9-E84D-AA0E-3EC1C5E239BA.root'
p137
aS'/store/mc/RunIIFall18DRPremix/DYToEE_M-50_NNPDF31_TuneCP5_13TeV-powheg-pythia8/AODSIM/102X_upgrade2018_realistic_v11-v1/100000/8DDFD908-4A83-054C-9E53-E6468D605FE7.root'
p138
aS'/store/mc/RunIIFall18DRPremix/DYToEE_M-50_NNPDF31_TuneCP5_13TeV-powheg-pythia8/AODSIM/102X_upgrade2018_realistic_v11-v1/100000/C7758E36-DA25-3D41-A71F-220C6637621E.root'
p139
aS'/store/mc/RunIIFall18DRPremix/DYToEE_M-50_NNPDF31_TuneCP5_13TeV-powheg-pythia8/AODSIM/102X_upgrade2018_realistic_v11-v1/100000/5378E128-A286-D947-BDC3-BD0FE79C8107.root'
p140
aS'/store/mc/RunIIFall18DRPremix/DYToEE_M-50_NNPDF31_TuneCP5_13TeV-powheg-pythia8/AODSIM/102X_upgrade2018_realistic_v11-v1/100000/34A94426-63EA-1C4F-BEF8-C504E5B1EFD7.root'
p141
aS'/store/mc/RunIIFall18DRPremix/DYToEE_M-50_NNPDF31_TuneCP5_13TeV-powheg-pythia8/AODSIM/102X_upgrade2018_realistic_v11-v1/100000/F7C61591-0E67-6A48-BE60-0C9F4D284DB0.root'
p142
aS'/store/mc/RunIIFall18DRPremix/DYToEE_M-50_NNPDF31_TuneCP5_13TeV-powheg-pythia8/AODSIM/102X_upgrade2018_realistic_v11-v1/100000/F5B69C6F-2160-A447-A04C-D780CFAEAB6E.root'
p143
aS'/store/mc/RunIIFall18DRPremix/DYToEE_M-50_NNPDF31_TuneCP5_13TeV-powheg-pythia8/AODSIM/102X_upgrade2018_realistic_v11-v1/100000/0CC5E082-C232-E947-AFE3-6D193F1EFCF3.root'
p144
aS'/store/mc/RunIIFall18DRPremix/DYToEE_M-50_NNPDF31_TuneCP5_13TeV-powheg-pythia8/AODSIM/102X_upgrade2018_realistic_v11-v1/100000/B0306C6E-C734-DD4A-B58B-90264E7EF43E.root'
p145
aS'/store/mc/RunIIFall18DRPremix/DYToEE_M-50_NNPDF31_TuneCP5_13TeV-powheg-pythia8/AODSIM/102X_upgrade2018_realistic_v11-v1/100000/B24FCC25-B3FE-A948-8C9B-C433AEFC8731.root'
p146
aS'/store/mc/RunIIFall18DRPremix/DYToEE_M-50_NNPDF31_TuneCP5_13TeV-powheg-pythia8/AODSIM/102X_upgrade2018_realistic_v11-v1/100000/C57D7A41-97C1-024F-855F-E34D262269CD.root'
p147
aS'/store/mc/RunIIFall18DRPremix/DYToEE_M-50_NNPDF31_TuneCP5_13TeV-powheg-pythia8/AODSIM/102X_upgrade2018_realistic_v11-v1/100000/7F96EAC2-13EC-0749-A2BB-1A1BD2BB63D7.root'
p148
aS'/store/mc/RunIIFall18DRPremix/DYToEE_M-50_NNPDF31_TuneCP5_13TeV-powheg-pythia8/AODSIM/102X_upgrade2018_realistic_v11-v1/100000/21C9A0D9-F012-7F42-8405-1E56C64EE8F7.root'
p149
aS'/store/mc/RunIIFall18DRPremix/DYToEE_M-50_NNPDF31_TuneCP5_13TeV-powheg-pythia8/AODSIM/102X_upgrade2018_realistic_v11-v1/100000/19D4C3BF-4309-7240-B2A6-B5DB7B27840B.root'
p150
aS'/store/mc/RunIIFall18DRPremix/DYToEE_M-50_NNPDF31_TuneCP5_13TeV-powheg-pythia8/AODSIM/102X_upgrade2018_realistic_v11-v1/100000/CB132404-F5B5-544E-BD57-4E0B1073A8EB.root'
p151
aS'/store/mc/RunIIFall18DRPremix/DYToEE_M-50_NNPDF31_TuneCP5_13TeV-powheg-pythia8/AODSIM/102X_upgrade2018_realistic_v11-v1/100000/21E9E835-EEC4-7946-8716-13EA9BF92D80.root'
p152
aS'/store/mc/RunIIFall18DRPremix/DYToEE_M-50_NNPDF31_TuneCP5_13TeV-powheg-pythia8/AODSIM/102X_upgrade2018_realistic_v11-v1/100000/C44BAD51-1A54-B64C-A684-6737AB194AA8.root'
p153
aS'/store/mc/RunIIFall18DRPremix/DYToEE_M-50_NNPDF31_TuneCP5_13TeV-powheg-pythia8/AODSIM/102X_upgrade2018_realistic_v11-v1/100000/0ADF233A-E6DB-BC4B-A1B2-8C5542A2C157.root'
p154
aS'/store/mc/RunIIFall18DRPremix/DYToEE_M-50_NNPDF31_TuneCP5_13TeV-powheg-pythia8/AODSIM/102X_upgrade2018_realistic_v11-v1/100000/72B29CB6-FFA7-9748-8395-1F7521626AF0.root'
p155
aS'/store/mc/RunIIFall18DRPremix/DYToEE_M-50_NNPDF31_TuneCP5_13TeV-powheg-pythia8/AODSIM/102X_upgrade2018_realistic_v11-v1/100000/A62495CE-B31A-0748-92A6-0BDA7E8C2FED.root'
p156
aS'/store/mc/RunIIFall18DRPremix/DYToEE_M-50_NNPDF31_TuneCP5_13TeV-powheg-pythia8/AODSIM/102X_upgrade2018_realistic_v11-v1/100000/B6C80EF6-C799-4B4A-B666-7D27920795AF.root'
p157
aS'/store/mc/RunIIFall18DRPremix/DYToEE_M-50_NNPDF31_TuneCP5_13TeV-powheg-pythia8/AODSIM/102X_upgrade2018_realistic_v11-v1/100000/64C40C70-60D7-F340-AA90-E313E91DE6B8.root'
p158
aS'/store/mc/RunIIFall18DRPremix/DYToEE_M-50_NNPDF31_TuneCP5_13TeV-powheg-pythia8/AODSIM/102X_upgrade2018_realistic_v11-v1/100000/6C9FCEE9-2AAF-4548-A74F-BD2C703082E5.root'
p159
aS'/store/mc/RunIIFall18DRPremix/DYToEE_M-50_NNPDF31_TuneCP5_13TeV-powheg-pythia8/AODSIM/102X_upgrade2018_realistic_v11-v1/100000/B290F586-C4BB-1840-818F-14B3A715E2B5.root'
p160
aS'/store/mc/RunIIFall18DRPremix/DYToEE_M-50_NNPDF31_TuneCP5_13TeV-powheg-pythia8/AODSIM/102X_upgrade2018_realistic_v11-v1/100000/567ED9D7-B580-A846-B9E2-BC6F0350D5CF.root'
p161
aS'/store/mc/RunIIFall18DRPremix/DYToEE_M-50_NNPDF31_TuneCP5_13TeV-powheg-pythia8/AODSIM/102X_upgrade2018_realistic_v11-v1/100000/D6564362-4D4C-7747-8D2C-1C7172110BBB.root'
p162
aS'/store/mc/RunIIFall18DRPremix/DYToEE_M-50_NNPDF31_TuneCP5_13TeV-powheg-pythia8/AODSIM/102X_upgrade2018_realistic_v11-v1/100000/A5C16666-8E19-A04A-8E31-B55393A263FA.root'
p163
aS'/store/mc/RunIIFall18DRPremix/DYToEE_M-50_NNPDF31_TuneCP5_13TeV-powheg-pythia8/AODSIM/102X_upgrade2018_realistic_v11-v1/100000/E1D30BAC-647A-AA49-B414-FD9C5D70580A.root'
p164
aS'/store/mc/RunIIFall18DRPremix/DYToEE_M-50_NNPDF31_TuneCP5_13TeV-powheg-pythia8/AODSIM/102X_upgrade2018_realistic_v11-v1/100000/F4C68D4F-5E40-7A41-AD24-C43BB1F0E9A7.root'
p165
aS'/store/mc/RunIIFall18DRPremix/DYToEE_M-50_NNPDF31_TuneCP5_13TeV-powheg-pythia8/AODSIM/102X_upgrade2018_realistic_v11-v1/100000/C3DF480A-7F5B-504F-8FB3-AAF47E873701.root'
p166
aS'/store/mc/RunIIFall18DRPremix/DYToEE_M-50_NNPDF31_TuneCP5_13TeV-powheg-pythia8/AODSIM/102X_upgrade2018_realistic_v11-v1/100000/2C89480C-DE5D-DC45-8B8E-B0D310B4278A.root'
p167
aS'/store/mc/RunIIFall18DRPremix/DYToEE_M-50_NNPDF31_TuneCP5_13TeV-powheg-pythia8/AODSIM/102X_upgrade2018_realistic_v11-v1/100000/0C5B9CC2-5C9A-3A43-A177-357E85CA81F3.root'
p168
aS'/store/mc/RunIIFall18DRPremix/DYToEE_M-50_NNPDF31_TuneCP5_13TeV-powheg-pythia8/AODSIM/102X_upgrade2018_realistic_v11-v1/100000/D7756FDE-0AD3-234C-8711-5042D1BA9733.root'
p169
aS'/store/mc/RunIIFall18DRPremix/DYToEE_M-50_NNPDF31_TuneCP5_13TeV-powheg-pythia8/AODSIM/102X_upgrade2018_realistic_v11-v1/100000/A74F9579-F2AA-8A40-AF18-C4EC367C01BA.root'
p170
aS'/store/mc/RunIIFall18DRPremix/DYToEE_M-50_NNPDF31_TuneCP5_13TeV-powheg-pythia8/AODSIM/102X_upgrade2018_realistic_v11-v1/100000/57AA32FF-534D-064E-B33F-9992898884C0.root'
p171
aS'/store/mc/RunIIFall18DRPremix/DYToEE_M-50_NNPDF31_TuneCP5_13TeV-powheg-pythia8/AODSIM/102X_upgrade2018_realistic_v11-v1/100000/79D5338D-9FF1-4C47-A1AD-8BAE0E1B4F11.root'
p172
aS'/store/mc/RunIIFall18DRPremix/DYToEE_M-50_NNPDF31_TuneCP5_13TeV-powheg-pythia8/AODSIM/102X_upgrade2018_realistic_v11-v1/100000/C0C3B526-5C95-DC4F-A663-495503D8EA41.root'
p173
aS'/store/mc/RunIIFall18DRPremix/DYToEE_M-50_NNPDF31_TuneCP5_13TeV-powheg-pythia8/AODSIM/102X_upgrade2018_realistic_v11-v1/100000/2406D733-5D60-554B-9185-D32DC9CED46B.root'
p174
aS'/store/mc/RunIIFall18DRPremix/DYToEE_M-50_NNPDF31_TuneCP5_13TeV-powheg-pythia8/AODSIM/102X_upgrade2018_realistic_v11-v1/100000/D822963F-849B-8C42-8494-79025E8BFEB6.root'
p175
aS'/store/mc/RunIIFall18DRPremix/DYToEE_M-50_NNPDF31_TuneCP5_13TeV-powheg-pythia8/AODSIM/102X_upgrade2018_realistic_v11-v1/100000/104207E8-158A-C94C-A6B4-772835695770.root'
p176
aS'/store/mc/RunIIFall18DRPremix/DYToEE_M-50_NNPDF31_TuneCP5_13TeV-powheg-pythia8/AODSIM/102X_upgrade2018_realistic_v11-v1/100000/B9876AC3-20B0-214C-BC34-F198E491124B.root'
p177
aS'/store/mc/RunIIFall18DRPremix/DYToEE_M-50_NNPDF31_TuneCP5_13TeV-powheg-pythia8/AODSIM/102X_upgrade2018_realistic_v11-v1/100000/A7B2CE73-ADC4-EB4F-B932-C526917C5F1F.root'
p178
aS'/store/mc/RunIIFall18DRPremix/DYToEE_M-50_NNPDF31_TuneCP5_13TeV-powheg-pythia8/AODSIM/102X_upgrade2018_realistic_v11-v1/100000/CF71B251-2E0C-1D48-BE82-B7F70B00BB90.root'
p179
aS'/store/mc/RunIIFall18DRPremix/DYToEE_M-50_NNPDF31_TuneCP5_13TeV-powheg-pythia8/AODSIM/102X_upgrade2018_realistic_v11-v1/100000/4490A299-3372-994D-9347-17E0C116F64C.root'
p180
aS'/store/mc/RunIIFall18DRPremix/DYToEE_M-50_NNPDF31_TuneCP5_13TeV-powheg-pythia8/AODSIM/102X_upgrade2018_realistic_v11-v1/100000/72CEC5BD-F4D3-BC45-A2B0-DA8727C13173.root'
p181
aS'/store/mc/RunIIFall18DRPremix/DYToEE_M-50_NNPDF31_TuneCP5_13TeV-powheg-pythia8/AODSIM/102X_upgrade2018_realistic_v11-v1/100000/11245C87-9A59-5849-B46F-48642F9A5463.root'
p182
aS'/store/mc/RunIIFall18DRPremix/DYToEE_M-50_NNPDF31_TuneCP5_13TeV-powheg-pythia8/AODSIM/102X_upgrade2018_realistic_v11-v1/100000/014792DB-A55C-B54E-8F04-1C9F5E6F1E91.root'
p183
aS'/store/mc/RunIIFall18DRPremix/DYToEE_M-50_NNPDF31_TuneCP5_13TeV-powheg-pythia8/AODSIM/102X_upgrade2018_realistic_v11-v1/100000/1FF9C65C-77B3-434E-9D49-4EF659292FA8.root'
p184
aS'/store/mc/RunIIFall18DRPremix/DYToEE_M-50_NNPDF31_TuneCP5_13TeV-powheg-pythia8/AODSIM/102X_upgrade2018_realistic_v11-v1/100000/B310FB9A-ABF1-D34B-836E-3F39D50BF52A.root'
p185
aS'/store/mc/RunIIFall18DRPremix/DYToEE_M-50_NNPDF31_TuneCP5_13TeV-powheg-pythia8/AODSIM/102X_upgrade2018_realistic_v11-v1/100000/684E7397-E510-C540-AF3E-C53EF02A233E.root'
p186
aS'/store/mc/RunIIFall18DRPremix/DYToEE_M-50_NNPDF31_TuneCP5_13TeV-powheg-pythia8/AODSIM/102X_upgrade2018_realistic_v11-v1/100000/0015D225-48AD-BF46-92B2-E1E338C41241.root'
p187
aS'/store/mc/RunIIFall18DRPremix/DYToEE_M-50_NNPDF31_TuneCP5_13TeV-powheg-pythia8/AODSIM/102X_upgrade2018_realistic_v11-v1/100000/3B575A32-EEC9-E548-822A-509AE33EC6C8.root'
p188
aS'/store/mc/RunIIFall18DRPremix/DYToEE_M-50_NNPDF31_TuneCP5_13TeV-powheg-pythia8/AODSIM/102X_upgrade2018_realistic_v11-v1/100000/2BE56563-BC45-6F4F-BE89-57D1B7473AC5.root'
p189
aS'/store/mc/RunIIFall18DRPremix/DYToEE_M-50_NNPDF31_TuneCP5_13TeV-powheg-pythia8/AODSIM/102X_upgrade2018_realistic_v11-v1/100000/BB4A0A3F-CEAD-F143-87C2-5A50929BA4F3.root'
p190
aS'/store/mc/RunIIFall18DRPremix/DYToEE_M-50_NNPDF31_TuneCP5_13TeV-powheg-pythia8/AODSIM/102X_upgrade2018_realistic_v11-v1/100000/20A3534E-85C0-C34B-812D-F36A309A6333.root'
p191
aS'/store/mc/RunIIFall18DRPremix/DYToEE_M-50_NNPDF31_TuneCP5_13TeV-powheg-pythia8/AODSIM/102X_upgrade2018_realistic_v11-v1/100000/E9DCB957-D6F4-8945-94CB-C67E38A96B73.root'
p192
aS'/store/mc/RunIIFall18DRPremix/DYToEE_M-50_NNPDF31_TuneCP5_13TeV-powheg-pythia8/AODSIM/102X_upgrade2018_realistic_v11-v1/100001/6C4E9F7B-0E68-844E-92EF-E89AFB19093D.root'
p193
aS'/store/mc/RunIIFall18DRPremix/DYToEE_M-50_NNPDF31_TuneCP5_13TeV-powheg-pythia8/AODSIM/102X_upgrade2018_realistic_v11-v1/100001/4FD71FDD-AB7F-7D46-80DA-61C41709BE23.root'
p194
aS'/store/mc/RunIIFall18DRPremix/DYToEE_M-50_NNPDF31_TuneCP5_13TeV-powheg-pythia8/AODSIM/102X_upgrade2018_realistic_v11-v1/100001/CC809103-15B6-314D-94B9-1209CA1E97B2.root'
p195
aS'/store/mc/RunIIFall18DRPremix/DYToEE_M-50_NNPDF31_TuneCP5_13TeV-powheg-pythia8/AODSIM/102X_upgrade2018_realistic_v11-v1/100001/7533E3A2-BEB2-4C4C-94B6-A088E6B65772.root'
p196
aS'/store/mc/RunIIFall18DRPremix/DYToEE_M-50_NNPDF31_TuneCP5_13TeV-powheg-pythia8/AODSIM/102X_upgrade2018_realistic_v11-v1/100001/D56CA49D-640B-434C-A733-4F7D87D71EED.root'
p197
aS'/store/mc/RunIIFall18DRPremix/DYToEE_M-50_NNPDF31_TuneCP5_13TeV-powheg-pythia8/AODSIM/102X_upgrade2018_realistic_v11-v1/100001/C86DD2DD-CBD2-0746-B4C3-1F0A92F7B7D9.root'
p198
aS'/store/mc/RunIIFall18DRPremix/DYToEE_M-50_NNPDF31_TuneCP5_13TeV-powheg-pythia8/AODSIM/102X_upgrade2018_realistic_v11-v1/100001/3EF2973A-1995-FE4C-BFA0-889ADF54F0D2.root'
p199
aS'/store/mc/RunIIFall18DRPremix/DYToEE_M-50_NNPDF31_TuneCP5_13TeV-powheg-pythia8/AODSIM/102X_upgrade2018_realistic_v11-v1/100001/5B11A6F5-6856-2C48-A6D1-BE9A1039899D.root'
p200
aS'/store/mc/RunIIFall18DRPremix/DYToEE_M-50_NNPDF31_TuneCP5_13TeV-powheg-pythia8/AODSIM/102X_upgrade2018_realistic_v11-v1/100001/7030D72F-1394-EC4E-8D1A-88A2BC06E125.root'
p201
aS'/store/mc/RunIIFall18DRPremix/DYToEE_M-50_NNPDF31_TuneCP5_13TeV-powheg-pythia8/AODSIM/102X_upgrade2018_realistic_v11-v1/100001/27FFB938-E5DC-AD4E-9036-69DB86EB5C5B.root'
p202
aS'/store/mc/RunIIFall18DRPremix/DYToEE_M-50_NNPDF31_TuneCP5_13TeV-powheg-pythia8/AODSIM/102X_upgrade2018_realistic_v11-v1/100000/291B6F43-AF34-314B-BC27-704B67BAC8DD.root'
p203
aS'/store/mc/RunIIFall18DRPremix/DYToEE_M-50_NNPDF31_TuneCP5_13TeV-powheg-pythia8/AODSIM/102X_upgrade2018_realistic_v11-v1/100000/B9D452BA-11C6-D64B-A32B-28961A23977F.root'
p204
aS'/store/mc/RunIIFall18DRPremix/DYToEE_M-50_NNPDF31_TuneCP5_13TeV-powheg-pythia8/AODSIM/102X_upgrade2018_realistic_v11-v1/100000/E0B032C7-9A18-AC40-9CC6-E96B05E94F5E.root'
p205
aS'/store/mc/RunIIFall18DRPremix/DYToEE_M-50_NNPDF31_TuneCP5_13TeV-powheg-pythia8/AODSIM/102X_upgrade2018_realistic_v11-v1/100000/DF67A2FC-8277-284D-B6BA-4C3E2EF1205D.root'
p206
aS'/store/mc/RunIIFall18DRPremix/DYToEE_M-50_NNPDF31_TuneCP5_13TeV-powheg-pythia8/AODSIM/102X_upgrade2018_realistic_v11-v1/100000/1BCD1130-A43B-EA49-8D5E-38E677F54B64.root'
p207
aS'/store/mc/RunIIFall18DRPremix/DYToEE_M-50_NNPDF31_TuneCP5_13TeV-powheg-pythia8/AODSIM/102X_upgrade2018_realistic_v11-v1/100000/FA1DC781-6B44-0140-B491-C7C47C9CD7B2.root'
p208
aS'/store/mc/RunIIFall18DRPremix/DYToEE_M-50_NNPDF31_TuneCP5_13TeV-powheg-pythia8/AODSIM/102X_upgrade2018_realistic_v11-v1/100000/E3C767E4-5492-A249-B4FC-3CEF723B3DEC.root'
p209
aS'/store/mc/RunIIFall18DRPremix/DYToEE_M-50_NNPDF31_TuneCP5_13TeV-powheg-pythia8/AODSIM/102X_upgrade2018_realistic_v11-v1/100000/2E94CEF1-27FB-7349-BF16-9D1F79EC306E.root'
p210
aS'/store/mc/RunIIFall18DRPremix/DYToEE_M-50_NNPDF31_TuneCP5_13TeV-powheg-pythia8/AODSIM/102X_upgrade2018_realistic_v11-v1/100000/70F7755A-5F73-6646-871F-177F0FECA8A5.root'
p211
aS'/store/mc/RunIIFall18DRPremix/DYToEE_M-50_NNPDF31_TuneCP5_13TeV-powheg-pythia8/AODSIM/102X_upgrade2018_realistic_v11-v1/100000/2B5D0220-0B00-A347-BA28-25CDD65F998E.root'
p212
aS'/store/mc/RunIIFall18DRPremix/DYToEE_M-50_NNPDF31_TuneCP5_13TeV-powheg-pythia8/AODSIM/102X_upgrade2018_realistic_v11-v1/100000/ED1EDA25-DDCC-3C43-B3CD-AE4CC5E8E674.root'
p213
aS'/store/mc/RunIIFall18DRPremix/DYToEE_M-50_NNPDF31_TuneCP5_13TeV-powheg-pythia8/AODSIM/102X_upgrade2018_realistic_v11-v1/100000/B98CD717-EB0F-5945-9FAE-DF6392CE07E8.root'
p214
aS'/store/mc/RunIIFall18DRPremix/DYToEE_M-50_NNPDF31_TuneCP5_13TeV-powheg-pythia8/AODSIM/102X_upgrade2018_realistic_v11-v1/100000/47643D06-9BDD-1845-945B-CEC3C41F441E.root'
p215
aS'/store/mc/RunIIFall18DRPremix/DYToEE_M-50_NNPDF31_TuneCP5_13TeV-powheg-pythia8/AODSIM/102X_upgrade2018_realistic_v11-v1/100001/EEDC0925-3CF1-8540-8B80-10705C8D78DA.root'
p216
aS'/store/mc/RunIIFall18DRPremix/DYToEE_M-50_NNPDF31_TuneCP5_13TeV-powheg-pythia8/AODSIM/102X_upgrade2018_realistic_v11-v1/100000/C5233B0D-420E-6C4B-9162-65A5EB0697C9.root'
p217
aS'/store/mc/RunIIFall18DRPremix/DYToEE_M-50_NNPDF31_TuneCP5_13TeV-powheg-pythia8/AODSIM/102X_upgrade2018_realistic_v11-v1/100001/96607424-1FE4-834C-9638-2198DA85B333.root'
p218
aS'/store/mc/RunIIFall18DRPremix/DYToEE_M-50_NNPDF31_TuneCP5_13TeV-powheg-pythia8/AODSIM/102X_upgrade2018_realistic_v11-v1/100000/C028505A-6FE1-3841-89A2-4718A7412250.root'
p219
aS'/store/mc/RunIIFall18DRPremix/DYToEE_M-50_NNPDF31_TuneCP5_13TeV-powheg-pythia8/AODSIM/102X_upgrade2018_realistic_v11-v1/100001/FD8C28E3-71EB-F146-8B87-C0E79DD2ADFB.root'
p220
aS'/store/mc/RunIIFall18DRPremix/DYToEE_M-50_NNPDF31_TuneCP5_13TeV-powheg-pythia8/AODSIM/102X_upgrade2018_realistic_v11-v1/100001/BE24C993-8C07-A04A-84E6-1C9A41107ECF.root'
p221
aS'/store/mc/RunIIFall18DRPremix/DYToEE_M-50_NNPDF31_TuneCP5_13TeV-powheg-pythia8/AODSIM/102X_upgrade2018_realistic_v11-v1/100000/1EA375C7-DA0C-1C47-9B73-9CA6F3F891D9.root'
p222
aS'/store/mc/RunIIFall18DRPremix/DYToEE_M-50_NNPDF31_TuneCP5_13TeV-powheg-pythia8/AODSIM/102X_upgrade2018_realistic_v11-v1/100001/AEB1A131-5C06-884C-87A1-5F1958D14F9F.root'
p223
aS'/store/mc/RunIIFall18DRPremix/DYToEE_M-50_NNPDF31_TuneCP5_13TeV-powheg-pythia8/AODSIM/102X_upgrade2018_realistic_v11-v1/100001/2E15AE15-ED5A-5142-BB43-9812A0659E41.root'
p224
aS'/store/mc/RunIIFall18DRPremix/DYToEE_M-50_NNPDF31_TuneCP5_13TeV-powheg-pythia8/AODSIM/102X_upgrade2018_realistic_v11-v1/100000/72F3B84A-268C-F449-A6DF-8F89302135F8.root'
p225
aS'/store/mc/RunIIFall18DRPremix/DYToEE_M-50_NNPDF31_TuneCP5_13TeV-powheg-pythia8/AODSIM/102X_upgrade2018_realistic_v11-v1/100000/61C516D8-A0EA-3F4F-BB39-F4A2525A108D.root'
p226
aS'/store/mc/RunIIFall18DRPremix/DYToEE_M-50_NNPDF31_TuneCP5_13TeV-powheg-pythia8/AODSIM/102X_upgrade2018_realistic_v11-v1/100001/CC815EC3-52A9-C248-AD07-808EFFFF35B5.root'
p227
aS'/store/mc/RunIIFall18DRPremix/DYToEE_M-50_NNPDF31_TuneCP5_13TeV-powheg-pythia8/AODSIM/102X_upgrade2018_realistic_v11-v1/100001/B52E8BDF-36E4-F642-A4B7-1A516AA4F27D.root'
p228
aS'/store/mc/RunIIFall18DRPremix/DYToEE_M-50_NNPDF31_TuneCP5_13TeV-powheg-pythia8/AODSIM/102X_upgrade2018_realistic_v11-v1/100001/08B9485E-EBB1-E64A-AD51-285CD84E2049.root'
p229
aS'/store/mc/RunIIFall18DRPremix/DYToEE_M-50_NNPDF31_TuneCP5_13TeV-powheg-pythia8/AODSIM/102X_upgrade2018_realistic_v11-v1/100001/04536CA3-5476-334C-BF7F-BC00D1EDDBB2.root'
p230
aS'/store/mc/RunIIFall18DRPremix/DYToEE_M-50_NNPDF31_TuneCP5_13TeV-powheg-pythia8/AODSIM/102X_upgrade2018_realistic_v11-v1/100001/0DBEECED-205C-044F-B9BE-FF04C102A04C.root'
p231
aS'/store/mc/RunIIFall18DRPremix/DYToEE_M-50_NNPDF31_TuneCP5_13TeV-powheg-pythia8/AODSIM/102X_upgrade2018_realistic_v11-v1/100001/980C75B4-C5FB-DA41-91AB-51810CE7C81F.root'
p232
aS'/store/mc/RunIIFall18DRPremix/DYToEE_M-50_NNPDF31_TuneCP5_13TeV-powheg-pythia8/AODSIM/102X_upgrade2018_realistic_v11-v1/100001/5BBE0604-E104-BD47-BC78-413269EABA98.root'
p233
aS'/store/mc/RunIIFall18DRPremix/DYToEE_M-50_NNPDF31_TuneCP5_13TeV-powheg-pythia8/AODSIM/102X_upgrade2018_realistic_v11-v1/100001/FD681336-2971-3D4E-82F2-1C28835A326B.root'
p234
aS'/store/mc/RunIIFall18DRPremix/DYToEE_M-50_NNPDF31_TuneCP5_13TeV-powheg-pythia8/AODSIM/102X_upgrade2018_realistic_v11-v1/100001/F9284856-7D0A-B141-B37F-C066559D5377.root'
p235
aS'/store/mc/RunIIFall18DRPremix/DYToEE_M-50_NNPDF31_TuneCP5_13TeV-powheg-pythia8/AODSIM/102X_upgrade2018_realistic_v11-v1/100001/4F3F0DA9-D6E7-DA4F-BD89-6C97C312EEE6.root'
p236
aS'/store/mc/RunIIFall18DRPremix/DYToEE_M-50_NNPDF31_TuneCP5_13TeV-powheg-pythia8/AODSIM/102X_upgrade2018_realistic_v11-v1/100001/580BB15C-2D86-524B-AF5E-1C3CD71F9413.root'
p237
aS'/store/mc/RunIIFall18DRPremix/DYToEE_M-50_NNPDF31_TuneCP5_13TeV-powheg-pythia8/AODSIM/102X_upgrade2018_realistic_v11-v1/100001/0E0F7802-9257-F247-AFC7-77EA453B8B12.root'
p238
aS'/store/mc/RunIIFall18DRPremix/DYToEE_M-50_NNPDF31_TuneCP5_13TeV-powheg-pythia8/AODSIM/102X_upgrade2018_realistic_v11-v1/100001/8586727D-6C04-B547-BF68-72B28B018571.root'
p239
aS'/store/mc/RunIIFall18DRPremix/DYToEE_M-50_NNPDF31_TuneCP5_13TeV-powheg-pythia8/AODSIM/102X_upgrade2018_realistic_v11-v1/100000/1F743BF7-520B-E14D-B84C-5F938D26FD67.root'
p240
aS'/store/mc/RunIIFall18DRPremix/DYToEE_M-50_NNPDF31_TuneCP5_13TeV-powheg-pythia8/AODSIM/102X_upgrade2018_realistic_v11-v1/100000/B4F4B704-C722-6C4A-BD91-5F986C3C2995.root'
p241
aS'/store/mc/RunIIFall18DRPremix/DYToEE_M-50_NNPDF31_TuneCP5_13TeV-powheg-pythia8/AODSIM/102X_upgrade2018_realistic_v11-v1/100000/F0AD85E5-9917-0B4F-B0BC-7FBABE165B78.root'
p242
aS'/store/mc/RunIIFall18DRPremix/DYToEE_M-50_NNPDF31_TuneCP5_13TeV-powheg-pythia8/AODSIM/102X_upgrade2018_realistic_v11-v1/100000/5DAD923C-525F-1B40-980B-51EA9B84EA46.root'
p243
aS'/store/mc/RunIIFall18DRPremix/DYToEE_M-50_NNPDF31_TuneCP5_13TeV-powheg-pythia8/AODSIM/102X_upgrade2018_realistic_v11-v1/100000/50361B8A-3E3D-E441-AF15-C6AB32961B9A.root'
p244
aS'/store/mc/RunIIFall18DRPremix/DYToEE_M-50_NNPDF31_TuneCP5_13TeV-powheg-pythia8/AODSIM/102X_upgrade2018_realistic_v11-v1/100000/FDDF22AB-C8B8-B04B-BF5A-56F7A7495F4A.root'
p245
aS'/store/mc/RunIIFall18DRPremix/DYToEE_M-50_NNPDF31_TuneCP5_13TeV-powheg-pythia8/AODSIM/102X_upgrade2018_realistic_v11-v1/100000/E0426F2F-9104-494F-B851-40DE34ED999F.root'
p246
aS'/store/mc/RunIIFall18DRPremix/DYToEE_M-50_NNPDF31_TuneCP5_13TeV-powheg-pythia8/AODSIM/102X_upgrade2018_realistic_v11-v1/100000/CCB10E7F-D25A-8246-A10D-A5CFA8608A29.root'
p247
aS'/store/mc/RunIIFall18DRPremix/DYToEE_M-50_NNPDF31_TuneCP5_13TeV-powheg-pythia8/AODSIM/102X_upgrade2018_realistic_v11-v1/100000/E34118E2-9041-3F41-B46D-CCD01F44284E.root'
p248
aS'/store/mc/RunIIFall18DRPremix/DYToEE_M-50_NNPDF31_TuneCP5_13TeV-powheg-pythia8/AODSIM/102X_upgrade2018_realistic_v11-v1/100000/F8AB182E-7D17-5542-8AEC-ED05C756DA78.root'
p249
aS'/store/mc/RunIIFall18DRPremix/DYToEE_M-50_NNPDF31_TuneCP5_13TeV-powheg-pythia8/AODSIM/102X_upgrade2018_realistic_v11-v1/100000/9D6F6A02-387A-5546-9561-228F781C54F9.root'
p250
aS'/store/mc/RunIIFall18DRPremix/DYToEE_M-50_NNPDF31_TuneCP5_13TeV-powheg-pythia8/AODSIM/102X_upgrade2018_realistic_v11-v1/100000/BFCCB4CB-5A67-5743-AB28-43214B7B0505.root'
p251
aS'/store/mc/RunIIFall18DRPremix/DYToEE_M-50_NNPDF31_TuneCP5_13TeV-powheg-pythia8/AODSIM/102X_upgrade2018_realistic_v11-v1/100000/A428BBA1-FFF0-9547-B317-63E990AAF330.root'
p252
aS'/store/mc/RunIIFall18DRPremix/DYToEE_M-50_NNPDF31_TuneCP5_13TeV-powheg-pythia8/AODSIM/102X_upgrade2018_realistic_v11-v1/100000/6747D0D7-440D-174D-825A-2FA04F32B268.root'
p253
aS'/store/mc/RunIIFall18DRPremix/DYToEE_M-50_NNPDF31_TuneCP5_13TeV-powheg-pythia8/AODSIM/102X_upgrade2018_realistic_v11-v1/100000/AFE052AE-9FC7-4049-9A48-2FD9DA1B756F.root'
p254
aS'/store/mc/RunIIFall18DRPremix/DYToEE_M-50_NNPDF31_TuneCP5_13TeV-powheg-pythia8/AODSIM/102X_upgrade2018_realistic_v11-v1/100000/BDABDE81-CCB8-DD46-BC1B-1C89D63DB7D1.root'
p255
aS'/store/mc/RunIIFall18DRPremix/DYToEE_M-50_NNPDF31_TuneCP5_13TeV-powheg-pythia8/AODSIM/102X_upgrade2018_realistic_v11-v1/100000/FB37204C-D87A-FA47-BA27-503651CA791D.root'
p256
aS'/store/mc/RunIIFall18DRPremix/DYToEE_M-50_NNPDF31_TuneCP5_13TeV-powheg-pythia8/AODSIM/102X_upgrade2018_realistic_v11-v1/100000/B148D9EC-2FA3-F84B-B5C8-C156C7CD5CA6.root'
p257
aS'/store/mc/RunIIFall18DRPremix/DYToEE_M-50_NNPDF31_TuneCP5_13TeV-powheg-pythia8/AODSIM/102X_upgrade2018_realistic_v11-v1/100000/C397E170-94B8-FE47-97AE-CAE9898253B8.root'
p258
aS'/store/mc/RunIIFall18DRPremix/DYToEE_M-50_NNPDF31_TuneCP5_13TeV-powheg-pythia8/AODSIM/102X_upgrade2018_realistic_v11-v1/100000/8115823C-5B9D-ED49-AF5F-7E7EED227239.root'
p259
aS'/store/mc/RunIIFall18DRPremix/DYToEE_M-50_NNPDF31_TuneCP5_13TeV-powheg-pythia8/AODSIM/102X_upgrade2018_realistic_v11-v1/100000/26724178-A13F-C543-A093-934E99C466E1.root'
p260
aS'/store/mc/RunIIFall18DRPremix/DYToEE_M-50_NNPDF31_TuneCP5_13TeV-powheg-pythia8/AODSIM/102X_upgrade2018_realistic_v11-v1/100000/2AABF67C-90D7-3549-A967-66C03DF53FD9.root'
p261
aS'/store/mc/RunIIFall18DRPremix/DYToEE_M-50_NNPDF31_TuneCP5_13TeV-powheg-pythia8/AODSIM/102X_upgrade2018_realistic_v11-v1/100000/B57023E3-A8CF-9D4E-A1DA-ED5E869AD34C.root'
p262
aS'/store/mc/RunIIFall18DRPremix/DYToEE_M-50_NNPDF31_TuneCP5_13TeV-powheg-pythia8/AODSIM/102X_upgrade2018_realistic_v11-v1/100000/B3E95843-83E6-A74A-9B2E-35E5A7748484.root'
p263
aS'/store/mc/RunIIFall18DRPremix/DYToEE_M-50_NNPDF31_TuneCP5_13TeV-powheg-pythia8/AODSIM/102X_upgrade2018_realistic_v11-v1/100000/EFA1798B-9CD0-4F4E-873D-5800C324E23A.root'
p264
aS'/store/mc/RunIIFall18DRPremix/DYToEE_M-50_NNPDF31_TuneCP5_13TeV-powheg-pythia8/AODSIM/102X_upgrade2018_realistic_v11-v1/100000/1C0C0805-99EF-C840-83C5-FB89455557DA.root'
p265
aS'/store/mc/RunIIFall18DRPremix/DYToEE_M-50_NNPDF31_TuneCP5_13TeV-powheg-pythia8/AODSIM/102X_upgrade2018_realistic_v11-v1/100000/1648AB18-869A-9943-9FA4-491D22B9697D.root'
p266
aS'/store/mc/RunIIFall18DRPremix/DYToEE_M-50_NNPDF31_TuneCP5_13TeV-powheg-pythia8/AODSIM/102X_upgrade2018_realistic_v11-v1/100000/0959A1C7-1E90-AD4C-8567-FFD1DF843596.root'
p267
aS'/store/mc/RunIIFall18DRPremix/DYToEE_M-50_NNPDF31_TuneCP5_13TeV-powheg-pythia8/AODSIM/102X_upgrade2018_realistic_v11-v1/100000/BC1A8570-7A43-3749-AAE1-45C56908C709.root'
p268
aS'/store/mc/RunIIFall18DRPremix/DYToEE_M-50_NNPDF31_TuneCP5_13TeV-powheg-pythia8/AODSIM/102X_upgrade2018_realistic_v11-v1/100000/C561E21F-5694-3346-B5A1-8D7E6AFF9516.root'
p269
aS'/store/mc/RunIIFall18DRPremix/DYToEE_M-50_NNPDF31_TuneCP5_13TeV-powheg-pythia8/AODSIM/102X_upgrade2018_realistic_v11-v1/100000/6B0A57B7-1CCE-7546-9CEC-A8F74FAE1A2A.root'
p270
aS'/store/mc/RunIIFall18DRPremix/DYToEE_M-50_NNPDF31_TuneCP5_13TeV-powheg-pythia8/AODSIM/102X_upgrade2018_realistic_v11-v1/100000/6C10B441-0F4E-7D47-94CA-3C17D44FB407.root'
p271
aS'/store/mc/RunIIFall18DRPremix/DYToEE_M-50_NNPDF31_TuneCP5_13TeV-powheg-pythia8/AODSIM/102X_upgrade2018_realistic_v11-v1/100000/6CB3B2A0-D976-B04E-901C-3AC17297A9FC.root'
p272
aS'/store/mc/RunIIFall18DRPremix/DYToEE_M-50_NNPDF31_TuneCP5_13TeV-powheg-pythia8/AODSIM/102X_upgrade2018_realistic_v11-v1/100000/FC1C5E0A-C350-2644-9C05-FE5164C8A155.root'
p273
aS'/store/mc/RunIIFall18DRPremix/DYToEE_M-50_NNPDF31_TuneCP5_13TeV-powheg-pythia8/AODSIM/102X_upgrade2018_realistic_v11-v1/100000/4E40949C-70F0-A940-B8AB-2D3A6C114A56.root'
p274
aS'/store/mc/RunIIFall18DRPremix/DYToEE_M-50_NNPDF31_TuneCP5_13TeV-powheg-pythia8/AODSIM/102X_upgrade2018_realistic_v11-v1/100000/04FA64FD-8319-9741-B3D1-2548E1EB3A6A.root'
p275
aS'/store/mc/RunIIFall18DRPremix/DYToEE_M-50_NNPDF31_TuneCP5_13TeV-powheg-pythia8/AODSIM/102X_upgrade2018_realistic_v11-v1/100000/7198E8B6-C73F-C641-B644-00A00B9585E1.root'
p276
aS'/store/mc/RunIIFall18DRPremix/DYToEE_M-50_NNPDF31_TuneCP5_13TeV-powheg-pythia8/AODSIM/102X_upgrade2018_realistic_v11-v1/100000/F5B9FA9F-EB74-A844-B095-5542E46418C7.root'
p277
aS'/store/mc/RunIIFall18DRPremix/DYToEE_M-50_NNPDF31_TuneCP5_13TeV-powheg-pythia8/AODSIM/102X_upgrade2018_realistic_v11-v1/100001/D8FED239-C2CC-174A-8F26-D60A6DB9D2FB.root'
p278
aS'/store/mc/RunIIFall18DRPremix/DYToEE_M-50_NNPDF31_TuneCP5_13TeV-powheg-pythia8/AODSIM/102X_upgrade2018_realistic_v11-v1/100000/1107D058-1903-2A40-A3FB-CD73DC00EA00.root'
p279
aS'/store/mc/RunIIFall18DRPremix/DYToEE_M-50_NNPDF31_TuneCP5_13TeV-powheg-pythia8/AODSIM/102X_upgrade2018_realistic_v11-v1/100001/76AEC4FE-B867-6340-BEF0-7467C0ABA555.root'
p280
aS'/store/mc/RunIIFall18DRPremix/DYToEE_M-50_NNPDF31_TuneCP5_13TeV-powheg-pythia8/AODSIM/102X_upgrade2018_realistic_v11-v1/100000/3EF5B828-3352-8A45-8483-47BCDFCC28D5.root'
p281
aS'/store/mc/RunIIFall18DRPremix/DYToEE_M-50_NNPDF31_TuneCP5_13TeV-powheg-pythia8/AODSIM/102X_upgrade2018_realistic_v11-v1/100000/D2DB2D64-E8E1-0545-A03F-D789BF970261.root'
p282
aS'/store/mc/RunIIFall18DRPremix/DYToEE_M-50_NNPDF31_TuneCP5_13TeV-powheg-pythia8/AODSIM/102X_upgrade2018_realistic_v11-v1/100000/56B35B94-5EF2-5B46-B747-C54BF6A3CED5.root'
p283
aS'/store/mc/RunIIFall18DRPremix/DYToEE_M-50_NNPDF31_TuneCP5_13TeV-powheg-pythia8/AODSIM/102X_upgrade2018_realistic_v11-v1/100000/9527A99B-268B-BE4B-A8B1-F448CFC4A3D6.root'
p284
aS'/store/mc/RunIIFall18DRPremix/DYToEE_M-50_NNPDF31_TuneCP5_13TeV-powheg-pythia8/AODSIM/102X_upgrade2018_realistic_v11-v1/100000/167A1C1D-F12D-7B40-A45D-D96BC436CB6D.root'
p285
aS'/store/mc/RunIIFall18DRPremix/DYToEE_M-50_NNPDF31_TuneCP5_13TeV-powheg-pythia8/AODSIM/102X_upgrade2018_realistic_v11-v1/100000/13D4F79E-BFE3-134D-8C1B-6AFCF3D9C86F.root'
p286
aS'/store/mc/RunIIFall18DRPremix/DYToEE_M-50_NNPDF31_TuneCP5_13TeV-powheg-pythia8/AODSIM/102X_upgrade2018_realistic_v11-v1/100001/DC2B88B5-B28E-834A-A32F-40F58E8576F1.root'
p287
aS'/store/mc/RunIIFall18DRPremix/DYToEE_M-50_NNPDF31_TuneCP5_13TeV-powheg-pythia8/AODSIM/102X_upgrade2018_realistic_v11-v1/100001/7E879456-4D10-8A48-A114-E4BF2DFFE755.root'
p288
aS'/store/mc/RunIIFall18DRPremix/DYToEE_M-50_NNPDF31_TuneCP5_13TeV-powheg-pythia8/AODSIM/102X_upgrade2018_realistic_v11-v1/100001/53EBE204-AE8C-404F-AD20-50773D99FEAE.root'
p289
aS'/store/mc/RunIIFall18DRPremix/DYToEE_M-50_NNPDF31_TuneCP5_13TeV-powheg-pythia8/AODSIM/102X_upgrade2018_realistic_v11-v1/100000/CC3C918E-F517-F948-B85F-0CF95B51724C.root'
p290
aS'/store/mc/RunIIFall18DRPremix/DYToEE_M-50_NNPDF31_TuneCP5_13TeV-powheg-pythia8/AODSIM/102X_upgrade2018_realistic_v11-v1/100001/ABAAE43A-8A7A-5040-9008-BA362495CC94.root'
p291
aS'/store/mc/RunIIFall18DRPremix/DYToEE_M-50_NNPDF31_TuneCP5_13TeV-powheg-pythia8/AODSIM/102X_upgrade2018_realistic_v11-v1/100000/2C30B58D-949E-154F-AD40-095E5D558934.root'
p292
aS'/store/mc/RunIIFall18DRPremix/DYToEE_M-50_NNPDF31_TuneCP5_13TeV-powheg-pythia8/AODSIM/102X_upgrade2018_realistic_v11-v1/100000/BD16E776-DE26-1E4E-8F9D-74A46FB81335.root'
p293
aS'/store/mc/RunIIFall18DRPremix/DYToEE_M-50_NNPDF31_TuneCP5_13TeV-powheg-pythia8/AODSIM/102X_upgrade2018_realistic_v11-v1/100001/E298CB55-ACBD-4C46-B200-B6D4C5082BCB.root'
p294
aS'/store/mc/RunIIFall18DRPremix/DYToEE_M-50_NNPDF31_TuneCP5_13TeV-powheg-pythia8/AODSIM/102X_upgrade2018_realistic_v11-v1/100000/D1F050D4-5CA9-7743-89A9-A63973677431.root'
p295
aS'/store/mc/RunIIFall18DRPremix/DYToEE_M-50_NNPDF31_TuneCP5_13TeV-powheg-pythia8/AODSIM/102X_upgrade2018_realistic_v11-v1/100000/C50997CE-2E80-9F4F-8CE2-F78375BBC64C.root'
p296
aS'/store/mc/RunIIFall18DRPremix/DYToEE_M-50_NNPDF31_TuneCP5_13TeV-powheg-pythia8/AODSIM/102X_upgrade2018_realistic_v11-v1/100000/469C1110-5F76-AE48-A4E5-62F463131227.root'
p297
aS'/store/mc/RunIIFall18DRPremix/DYToEE_M-50_NNPDF31_TuneCP5_13TeV-powheg-pythia8/AODSIM/102X_upgrade2018_realistic_v11-v1/100000/0B0DB46C-F537-4742-AB01-CAFCB126774E.root'
p298
aS'/store/mc/RunIIFall18DRPremix/DYToEE_M-50_NNPDF31_TuneCP5_13TeV-powheg-pythia8/AODSIM/102X_upgrade2018_realistic_v11-v1/100000/5FC75771-2B66-3641-A80A-93E207497110.root'
p299
aS'/store/mc/RunIIFall18DRPremix/DYToEE_M-50_NNPDF31_TuneCP5_13TeV-powheg-pythia8/AODSIM/102X_upgrade2018_realistic_v11-v1/100000/EA5FD3B6-4DDF-334F-ADA2-D2CA876FD51B.root'
p300
aS'/store/mc/RunIIFall18DRPremix/DYToEE_M-50_NNPDF31_TuneCP5_13TeV-powheg-pythia8/AODSIM/102X_upgrade2018_realistic_v11-v1/100000/8C208A68-EB81-2A46-9277-95EC040E589A.root'
p301
aS'/store/mc/RunIIFall18DRPremix/DYToEE_M-50_NNPDF31_TuneCP5_13TeV-powheg-pythia8/AODSIM/102X_upgrade2018_realistic_v11-v1/100000/2DD83E81-6886-5943-B29D-45E114C66DF7.root'
p302
aS'/store/mc/RunIIFall18DRPremix/DYToEE_M-50_NNPDF31_TuneCP5_13TeV-powheg-pythia8/AODSIM/102X_upgrade2018_realistic_v11-v1/100000/859B6CBE-71F1-414D-AA2D-EC2CE120EB36.root'
p303
aS'/store/mc/RunIIFall18DRPremix/DYToEE_M-50_NNPDF31_TuneCP5_13TeV-powheg-pythia8/AODSIM/102X_upgrade2018_realistic_v11-v1/100000/756B7641-214F-4046-B8BF-DA5885B66801.root'
p304
aS'/store/mc/RunIIFall18DRPremix/DYToEE_M-50_NNPDF31_TuneCP5_13TeV-powheg-pythia8/AODSIM/102X_upgrade2018_realistic_v11-v1/100000/5AB53D39-E21D-354D-9A8F-366EE2C243D6.root'
p305
aS'/store/mc/RunIIFall18DRPremix/DYToEE_M-50_NNPDF31_TuneCP5_13TeV-powheg-pythia8/AODSIM/102X_upgrade2018_realistic_v11-v1/100000/BA8B22E5-3224-304A-BFCC-C9062397BE84.root'
p306
aS'/store/mc/RunIIFall18DRPremix/DYToEE_M-50_NNPDF31_TuneCP5_13TeV-powheg-pythia8/AODSIM/102X_upgrade2018_realistic_v11-v1/100000/E7D10597-EEA8-2245-BBC0-956CDABCA593.root'
p307
aS'/store/mc/RunIIFall18DRPremix/DYToEE_M-50_NNPDF31_TuneCP5_13TeV-powheg-pythia8/AODSIM/102X_upgrade2018_realistic_v11-v1/100000/743610C0-86AA-F144-9BD5-9B9D446BDB18.root'
p308
aS'/store/mc/RunIIFall18DRPremix/DYToEE_M-50_NNPDF31_TuneCP5_13TeV-powheg-pythia8/AODSIM/102X_upgrade2018_realistic_v11-v1/100000/2C411C92-1F5C-494D-8D43-2AB65BE02409.root'
p309
aS'/store/mc/RunIIFall18DRPremix/DYToEE_M-50_NNPDF31_TuneCP5_13TeV-powheg-pythia8/AODSIM/102X_upgrade2018_realistic_v11-v1/100000/E582E795-E431-8C4E-AC62-EF98382D9DB2.root'
p310
aS'/store/mc/RunIIFall18DRPremix/DYToEE_M-50_NNPDF31_TuneCP5_13TeV-powheg-pythia8/AODSIM/102X_upgrade2018_realistic_v11-v1/100000/D2CFFC2C-EC96-5B48-BC1F-D313B30C5269.root'
p311
aS'/store/mc/RunIIFall18DRPremix/DYToEE_M-50_NNPDF31_TuneCP5_13TeV-powheg-pythia8/AODSIM/102X_upgrade2018_realistic_v11-v1/100000/DA904B4D-7991-884D-ABB1-A7358C446E13.root'
p312
aS'/store/mc/RunIIFall18DRPremix/DYToEE_M-50_NNPDF31_TuneCP5_13TeV-powheg-pythia8/AODSIM/102X_upgrade2018_realistic_v11-v1/100000/0939B2FE-AD7D-D44A-83A4-F4A13CD4F734.root'
p313
aS'/store/mc/RunIIFall18DRPremix/DYToEE_M-50_NNPDF31_TuneCP5_13TeV-powheg-pythia8/AODSIM/102X_upgrade2018_realistic_v11-v1/100000/CD449FFE-8994-714F-9065-E5CD114290B8.root'
p314
aS'/store/mc/RunIIFall18DRPremix/DYToEE_M-50_NNPDF31_TuneCP5_13TeV-powheg-pythia8/AODSIM/102X_upgrade2018_realistic_v11-v1/100000/2ED2D933-E113-DE4F-8181-98D037BEF04F.root'
p315
aS'/store/mc/RunIIFall18DRPremix/DYToEE_M-50_NNPDF31_TuneCP5_13TeV-powheg-pythia8/AODSIM/102X_upgrade2018_realistic_v11-v1/100000/9C4F657C-A958-4644-97FE-718F53669500.root'
p316
aS'/store/mc/RunIIFall18DRPremix/DYToEE_M-50_NNPDF31_TuneCP5_13TeV-powheg-pythia8/AODSIM/102X_upgrade2018_realistic_v11-v1/100000/8F4DE266-293A-9B4F-A828-C192A02BBD43.root'
p317
aS'/store/mc/RunIIFall18DRPremix/DYToEE_M-50_NNPDF31_TuneCP5_13TeV-powheg-pythia8/AODSIM/102X_upgrade2018_realistic_v11-v1/100000/C55A0A5E-B3C5-2A40-8883-D6ECBE9D31DB.root'
p318
aS'/store/mc/RunIIFall18DRPremix/DYToEE_M-50_NNPDF31_TuneCP5_13TeV-powheg-pythia8/AODSIM/102X_upgrade2018_realistic_v11-v1/100001/948F1637-582C-8642-91FF-1DE89F1CF3C0.root'
p319
aS'/store/mc/RunIIFall18DRPremix/DYToEE_M-50_NNPDF31_TuneCP5_13TeV-powheg-pythia8/AODSIM/102X_upgrade2018_realistic_v11-v1/100000/DA2DEEFB-D64D-3F42-9CE1-073D227D21F9.root'
p320
aS'/store/mc/RunIIFall18DRPremix/DYToEE_M-50_NNPDF31_TuneCP5_13TeV-powheg-pythia8/AODSIM/102X_upgrade2018_realistic_v11-v1/100001/BBDE60D0-EEE6-E544-A902-90F362E63B3F.root'
p321
aS'/store/mc/RunIIFall18DRPremix/DYToEE_M-50_NNPDF31_TuneCP5_13TeV-powheg-pythia8/AODSIM/102X_upgrade2018_realistic_v11-v1/100001/57961805-4ACF-6247-B99B-628D1833C567.root'
p322
aS'/store/mc/RunIIFall18DRPremix/DYToEE_M-50_NNPDF31_TuneCP5_13TeV-powheg-pythia8/AODSIM/102X_upgrade2018_realistic_v11-v1/100001/A787DC88-31BC-EA4B-B3B7-E001E0428908.root'
p323
aS'/store/mc/RunIIFall18DRPremix/DYToEE_M-50_NNPDF31_TuneCP5_13TeV-powheg-pythia8/AODSIM/102X_upgrade2018_realistic_v11-v1/100000/5818D6AC-0B6D-FF43-9DEC-D8E011BAD37B.root'
p324
aS'/store/mc/RunIIFall18DRPremix/DYToEE_M-50_NNPDF31_TuneCP5_13TeV-powheg-pythia8/AODSIM/102X_upgrade2018_realistic_v11-v1/100000/1CC80345-87AC-8C45-AF1B-EE0D2F1FEC46.root'
p325
aS'/store/mc/RunIIFall18DRPremix/DYToEE_M-50_NNPDF31_TuneCP5_13TeV-powheg-pythia8/AODSIM/102X_upgrade2018_realistic_v11-v1/100000/80F045E1-CF63-2347-9D33-44406E9C2697.root'
p326
aS'/store/mc/RunIIFall18DRPremix/DYToEE_M-50_NNPDF31_TuneCP5_13TeV-powheg-pythia8/AODSIM/102X_upgrade2018_realistic_v11-v1/100000/B521A322-ED57-574D-A687-A460F60ED8DD.root'
p327
aS'/store/mc/RunIIFall18DRPremix/DYToEE_M-50_NNPDF31_TuneCP5_13TeV-powheg-pythia8/AODSIM/102X_upgrade2018_realistic_v11-v1/100000/0D037BD4-5D38-174C-9B37-CCC000275891.root'
p328
aS'/store/mc/RunIIFall18DRPremix/DYToEE_M-50_NNPDF31_TuneCP5_13TeV-powheg-pythia8/AODSIM/102X_upgrade2018_realistic_v11-v1/100000/0310630D-17CC-8D4B-8AA8-65424429D01E.root'
p329
aS'/store/mc/RunIIFall18DRPremix/DYToEE_M-50_NNPDF31_TuneCP5_13TeV-powheg-pythia8/AODSIM/102X_upgrade2018_realistic_v11-v1/100000/B46432FA-65A5-0646-8BA4-D8E3FB7F9EA1.root'
p330
aS'/store/mc/RunIIFall18DRPremix/DYToEE_M-50_NNPDF31_TuneCP5_13TeV-powheg-pythia8/AODSIM/102X_upgrade2018_realistic_v11-v1/100000/3DC68D3B-BDFB-4C4D-8B2E-D14F9FC6F422.root'
p331
aS'/store/mc/RunIIFall18DRPremix/DYToEE_M-50_NNPDF31_TuneCP5_13TeV-powheg-pythia8/AODSIM/102X_upgrade2018_realistic_v11-v1/100000/39041F4E-7CC0-7B41-8131-8D9A72B90035.root'
p332
aS'/store/mc/RunIIFall18DRPremix/DYToEE_M-50_NNPDF31_TuneCP5_13TeV-powheg-pythia8/AODSIM/102X_upgrade2018_realistic_v11-v1/100000/88CF0FB4-3CCF-D745-A6A6-2896E99BA4B0.root'
p333
aS'/store/mc/RunIIFall18DRPremix/DYToEE_M-50_NNPDF31_TuneCP5_13TeV-powheg-pythia8/AODSIM/102X_upgrade2018_realistic_v11-v1/100000/4931C29F-C911-6F4A-8A0A-5FEE0E5EC834.root'
p334
aS'/store/mc/RunIIFall18DRPremix/DYToEE_M-50_NNPDF31_TuneCP5_13TeV-powheg-pythia8/AODSIM/102X_upgrade2018_realistic_v11-v1/100000/AB30986D-4725-9C40-858E-0F060F59DE77.root'
p335
aS'/store/mc/RunIIFall18DRPremix/DYToEE_M-50_NNPDF31_TuneCP5_13TeV-powheg-pythia8/AODSIM/102X_upgrade2018_realistic_v11-v1/100000/25C70E74-1812-7844-B50A-BFCCC914ACDE.root'
p336
aS'/store/mc/RunIIFall18DRPremix/DYToEE_M-50_NNPDF31_TuneCP5_13TeV-powheg-pythia8/AODSIM/102X_upgrade2018_realistic_v11-v1/100000/DB06C646-1A8E-BB4D-9F25-1B529DAA8B2F.root'
p337
aS'/store/mc/RunIIFall18DRPremix/DYToEE_M-50_NNPDF31_TuneCP5_13TeV-powheg-pythia8/AODSIM/102X_upgrade2018_realistic_v11-v1/100000/743A8354-B0A3-9541-9168-0E55979D2757.root'
p338
aS'/store/mc/RunIIFall18DRPremix/DYToEE_M-50_NNPDF31_TuneCP5_13TeV-powheg-pythia8/AODSIM/102X_upgrade2018_realistic_v11-v1/100000/23AF829D-3AD8-9844-8EC7-0D7EF00EFC09.root'
p339
aS'/store/mc/RunIIFall18DRPremix/DYToEE_M-50_NNPDF31_TuneCP5_13TeV-powheg-pythia8/AODSIM/102X_upgrade2018_realistic_v11-v1/100000/0BB24E37-74FE-C148-AAF8-B31463BFF79B.root'
p340
aS'/store/mc/RunIIFall18DRPremix/DYToEE_M-50_NNPDF31_TuneCP5_13TeV-powheg-pythia8/AODSIM/102X_upgrade2018_realistic_v11-v1/100000/8229F43C-48F7-434C-A36D-E0742E6F0A88.root'
p341
aS'/store/mc/RunIIFall18DRPremix/DYToEE_M-50_NNPDF31_TuneCP5_13TeV-powheg-pythia8/AODSIM/102X_upgrade2018_realistic_v11-v1/100000/008D0B77-B517-874C-B20D-397462A22BCA.root'
p342
aS'/store/mc/RunIIFall18DRPremix/DYToEE_M-50_NNPDF31_TuneCP5_13TeV-powheg-pythia8/AODSIM/102X_upgrade2018_realistic_v11-v1/100000/75E05370-CA06-A040-8F42-CA24475A07C3.root'
p343
aS'/store/mc/RunIIFall18DRPremix/DYToEE_M-50_NNPDF31_TuneCP5_13TeV-powheg-pythia8/AODSIM/102X_upgrade2018_realistic_v11-v1/100000/518A11F1-8FC4-F145-BF3B-57E5217860A9.root'
p344
aS'/store/mc/RunIIFall18DRPremix/DYToEE_M-50_NNPDF31_TuneCP5_13TeV-powheg-pythia8/AODSIM/102X_upgrade2018_realistic_v11-v1/100000/6332F30F-7E61-F243-B15C-09DF03F97788.root'
p345
aS'/store/mc/RunIIFall18DRPremix/DYToEE_M-50_NNPDF31_TuneCP5_13TeV-powheg-pythia8/AODSIM/102X_upgrade2018_realistic_v11-v1/100000/074970E2-88AE-1A4A-B0F3-875D6AE9CF47.root'
p346
aS'/store/mc/RunIIFall18DRPremix/DYToEE_M-50_NNPDF31_TuneCP5_13TeV-powheg-pythia8/AODSIM/102X_upgrade2018_realistic_v11-v1/100000/3D59DB3E-38F0-4142-BFBE-78546C138FD1.root'
p347
aS'/store/mc/RunIIFall18DRPremix/DYToEE_M-50_NNPDF31_TuneCP5_13TeV-powheg-pythia8/AODSIM/102X_upgrade2018_realistic_v11-v1/100000/ADE82A87-179C-1347-B04E-D7F7792BAF74.root'
p348
aS'/store/mc/RunIIFall18DRPremix/DYToEE_M-50_NNPDF31_TuneCP5_13TeV-powheg-pythia8/AODSIM/102X_upgrade2018_realistic_v11-v1/100000/69765DE5-434A-6A43-B642-2FFB8D00BFEB.root'
p349
aS'/store/mc/RunIIFall18DRPremix/DYToEE_M-50_NNPDF31_TuneCP5_13TeV-powheg-pythia8/AODSIM/102X_upgrade2018_realistic_v11-v1/100000/1D1E78A4-ED9A-DA45-9B9E-B55123E90466.root'
p350
aS'/store/mc/RunIIFall18DRPremix/DYToEE_M-50_NNPDF31_TuneCP5_13TeV-powheg-pythia8/AODSIM/102X_upgrade2018_realistic_v11-v1/100000/934900EE-9997-DB45-B0A8-7F541FC20579.root'
p351
aS'/store/mc/RunIIFall18DRPremix/DYToEE_M-50_NNPDF31_TuneCP5_13TeV-powheg-pythia8/AODSIM/102X_upgrade2018_realistic_v11-v1/100000/5AE2D254-7A56-C94F-9C13-98C7E105BD28.root'
p352
aS'/store/mc/RunIIFall18DRPremix/DYToEE_M-50_NNPDF31_TuneCP5_13TeV-powheg-pythia8/AODSIM/102X_upgrade2018_realistic_v11-v1/100000/B2CA4F10-7664-7343-9F37-3A05F656FA72.root'
p353
aS'/store/mc/RunIIFall18DRPremix/DYToEE_M-50_NNPDF31_TuneCP5_13TeV-powheg-pythia8/AODSIM/102X_upgrade2018_realistic_v11-v1/100000/2E6B601F-914A-C44B-AA45-39971E57D99D.root'
p354
aS'/store/mc/RunIIFall18DRPremix/DYToEE_M-50_NNPDF31_TuneCP5_13TeV-powheg-pythia8/AODSIM/102X_upgrade2018_realistic_v11-v1/100000/9A86ACA8-37CF-C94C-B1F1-ECB3E51D298E.root'
p355
aS'/store/mc/RunIIFall18DRPremix/DYToEE_M-50_NNPDF31_TuneCP5_13TeV-powheg-pythia8/AODSIM/102X_upgrade2018_realistic_v11-v1/100000/1D41F2F7-D01C-6F4C-AF2D-DDAD05B1ABD0.root'
p356
aS'/store/mc/RunIIFall18DRPremix/DYToEE_M-50_NNPDF31_TuneCP5_13TeV-powheg-pythia8/AODSIM/102X_upgrade2018_realistic_v11-v1/100000/90DBB623-03D0-4C4E-BD47-83B965429D8A.root'
p357
aS'/store/mc/RunIIFall18DRPremix/DYToEE_M-50_NNPDF31_TuneCP5_13TeV-powheg-pythia8/AODSIM/102X_upgrade2018_realistic_v11-v1/100000/34FF5686-F2F3-9B4C-927B-0189C63DD0BA.root'
p358
aS'/store/mc/RunIIFall18DRPremix/DYToEE_M-50_NNPDF31_TuneCP5_13TeV-powheg-pythia8/AODSIM/102X_upgrade2018_realistic_v11-v1/100000/4AE87FC0-9359-CD48-8DBC-99EC526F4285.root'
p359
aS'/store/mc/RunIIFall18DRPremix/DYToEE_M-50_NNPDF31_TuneCP5_13TeV-powheg-pythia8/AODSIM/102X_upgrade2018_realistic_v11-v1/100000/4BAD8C67-4547-314D-A0A8-1EF629FBF547.root'
p360
aS'/store/mc/RunIIFall18DRPremix/DYToEE_M-50_NNPDF31_TuneCP5_13TeV-powheg-pythia8/AODSIM/102X_upgrade2018_realistic_v11-v1/100000/38245A0A-D816-654C-9DD1-8149BE21CF1C.root'
p361
aS'/store/mc/RunIIFall18DRPremix/DYToEE_M-50_NNPDF31_TuneCP5_13TeV-powheg-pythia8/AODSIM/102X_upgrade2018_realistic_v11-v1/100000/18BD8B0B-F49A-E044-BE17-41D9D3B1663E.root'
p362
aS'/store/mc/RunIIFall18DRPremix/DYToEE_M-50_NNPDF31_TuneCP5_13TeV-powheg-pythia8/AODSIM/102X_upgrade2018_realistic_v11-v1/100000/C86DA7D4-470C-2F4E-9343-77129F44B9D5.root'
p363
aS'/store/mc/RunIIFall18DRPremix/DYToEE_M-50_NNPDF31_TuneCP5_13TeV-powheg-pythia8/AODSIM/102X_upgrade2018_realistic_v11-v1/100000/CB3544E2-D392-8D49-AD2F-3A25BA64067D.root'
p364
aS'/store/mc/RunIIFall18DRPremix/DYToEE_M-50_NNPDF31_TuneCP5_13TeV-powheg-pythia8/AODSIM/102X_upgrade2018_realistic_v11-v1/100000/1D8308B6-D7E0-3147-B791-00C892657B5F.root'
p365
aS'/store/mc/RunIIFall18DRPremix/DYToEE_M-50_NNPDF31_TuneCP5_13TeV-powheg-pythia8/AODSIM/102X_upgrade2018_realistic_v11-v1/100000/C393C60B-24EC-D84F-BF91-7ABCC9F534F7.root'
p366
aS'/store/mc/RunIIFall18DRPremix/DYToEE_M-50_NNPDF31_TuneCP5_13TeV-powheg-pythia8/AODSIM/102X_upgrade2018_realistic_v11-v1/100000/F0D3B6C4-8DF0-5B45-A7C0-DD328D52FC49.root'
p367
aS'/store/mc/RunIIFall18DRPremix/DYToEE_M-50_NNPDF31_TuneCP5_13TeV-powheg-pythia8/AODSIM/102X_upgrade2018_realistic_v11-v1/100000/A059446C-E99F-AE4A-9F28-2C76B881F9F0.root'
p368
aS'/store/mc/RunIIFall18DRPremix/DYToEE_M-50_NNPDF31_TuneCP5_13TeV-powheg-pythia8/AODSIM/102X_upgrade2018_realistic_v11-v1/100000/BAFE1663-A53B-784C-A2C6-2EBDC696424E.root'
p369
aS'/store/mc/RunIIFall18DRPremix/DYToEE_M-50_NNPDF31_TuneCP5_13TeV-powheg-pythia8/AODSIM/102X_upgrade2018_realistic_v11-v1/100000/02DC9421-3611-EB42-A40F-F1695851E11B.root'
p370
aS'/store/mc/RunIIFall18DRPremix/DYToEE_M-50_NNPDF31_TuneCP5_13TeV-powheg-pythia8/AODSIM/102X_upgrade2018_realistic_v11-v1/100000/31969439-E7D3-F24D-8512-2CA57D47F274.root'
p371
aS'/store/mc/RunIIFall18DRPremix/DYToEE_M-50_NNPDF31_TuneCP5_13TeV-powheg-pythia8/AODSIM/102X_upgrade2018_realistic_v11-v1/100000/61EEC0EC-9801-9448-8DC9-E8F7308E4B50.root'
p372
aS'/store/mc/RunIIFall18DRPremix/DYToEE_M-50_NNPDF31_TuneCP5_13TeV-powheg-pythia8/AODSIM/102X_upgrade2018_realistic_v11-v1/100000/5D65F204-499A-B54A-8FEC-0DCB6E2B7799.root'
p373
aS'/store/mc/RunIIFall18DRPremix/DYToEE_M-50_NNPDF31_TuneCP5_13TeV-powheg-pythia8/AODSIM/102X_upgrade2018_realistic_v11-v1/100000/2320BF78-167C-CD4C-9FCF-1D23C7C01C87.root'
p374
aS'/store/mc/RunIIFall18DRPremix/DYToEE_M-50_NNPDF31_TuneCP5_13TeV-powheg-pythia8/AODSIM/102X_upgrade2018_realistic_v11-v1/100000/E4A1CE11-5AB7-BB49-AAAB-115310957B62.root'
p375
aS'/store/mc/RunIIFall18DRPremix/DYToEE_M-50_NNPDF31_TuneCP5_13TeV-powheg-pythia8/AODSIM/102X_upgrade2018_realistic_v11-v1/100000/3AAD680F-7AD0-9648-9287-08DFA9C8E5A0.root'
p376
aS'/store/mc/RunIIFall18DRPremix/DYToEE_M-50_NNPDF31_TuneCP5_13TeV-powheg-pythia8/AODSIM/102X_upgrade2018_realistic_v11-v1/100000/96391529-B567-D341-A584-98316A777DB2.root'
p377
aS'/store/mc/RunIIFall18DRPremix/DYToEE_M-50_NNPDF31_TuneCP5_13TeV-powheg-pythia8/AODSIM/102X_upgrade2018_realistic_v11-v1/100000/DC0D2F79-91D0-2543-A551-91BE8EFED00F.root'
p378
aS'/store/mc/RunIIFall18DRPremix/DYToEE_M-50_NNPDF31_TuneCP5_13TeV-powheg-pythia8/AODSIM/102X_upgrade2018_realistic_v11-v1/100000/3B7F87AB-147E-BF4B-8D31-6EFADC2FDC36.root'
p379
aS'/store/mc/RunIIFall18DRPremix/DYToEE_M-50_NNPDF31_TuneCP5_13TeV-powheg-pythia8/AODSIM/102X_upgrade2018_realistic_v11-v1/100001/6D80F2CD-9EA2-604A-AAD4-6DAF5522C907.root'
p380
aS'/store/mc/RunIIFall18DRPremix/DYToEE_M-50_NNPDF31_TuneCP5_13TeV-powheg-pythia8/AODSIM/102X_upgrade2018_realistic_v11-v1/100000/3A682B27-7BF9-BE41-AED7-C0387D23A3E7.root'
p381
aS'/store/mc/RunIIFall18DRPremix/DYToEE_M-50_NNPDF31_TuneCP5_13TeV-powheg-pythia8/AODSIM/102X_upgrade2018_realistic_v11-v1/100001/F61741ED-3229-C64F-81B1-74A5C35516CD.root'
p382
aS'/store/mc/RunIIFall18DRPremix/DYToEE_M-50_NNPDF31_TuneCP5_13TeV-powheg-pythia8/AODSIM/102X_upgrade2018_realistic_v11-v1/100000/ABA93323-0B7C-984A-810A-66FA62FE4534.root'
p383
aS'/store/mc/RunIIFall18DRPremix/DYToEE_M-50_NNPDF31_TuneCP5_13TeV-powheg-pythia8/AODSIM/102X_upgrade2018_realistic_v11-v1/100000/11F91E7B-7B01-B34E-AD4C-272D61CEB3C3.root'
p384
aS'/store/mc/RunIIFall18DRPremix/DYToEE_M-50_NNPDF31_TuneCP5_13TeV-powheg-pythia8/AODSIM/102X_upgrade2018_realistic_v11-v1/100001/DC2CDEF8-28B2-6341-9A07-4F0A2C8CBBB9.root'
p385
aS'/store/mc/RunIIFall18DRPremix/DYToEE_M-50_NNPDF31_TuneCP5_13TeV-powheg-pythia8/AODSIM/102X_upgrade2018_realistic_v11-v1/100000/3DD9FE96-5543-1E41-B567-A5F9BC378263.root'
p386
aS'/store/mc/RunIIFall18DRPremix/DYToEE_M-50_NNPDF31_TuneCP5_13TeV-powheg-pythia8/AODSIM/102X_upgrade2018_realistic_v11-v1/100001/C3E5EE81-83DA-8743-A4E1-118193EEA7E7.root'
p387
aS'/store/mc/RunIIFall18DRPremix/DYToEE_M-50_NNPDF31_TuneCP5_13TeV-powheg-pythia8/AODSIM/102X_upgrade2018_realistic_v11-v1/100001/DE651757-02F5-5A4E-9397-489F8A312B23.root'
p388
aS'/store/mc/RunIIFall18DRPremix/DYToEE_M-50_NNPDF31_TuneCP5_13TeV-powheg-pythia8/AODSIM/102X_upgrade2018_realistic_v11-v1/100001/449BE64D-15AA-5E46-BDB0-456651C95D3F.root'
p389
aS'/store/mc/RunIIFall18DRPremix/DYToEE_M-50_NNPDF31_TuneCP5_13TeV-powheg-pythia8/AODSIM/102X_upgrade2018_realistic_v11-v1/100001/2F26EC93-AC16-0E4F-8BF5-35A9905A9BB6.root'
p390
aS'/store/mc/RunIIFall18DRPremix/DYToEE_M-50_NNPDF31_TuneCP5_13TeV-powheg-pythia8/AODSIM/102X_upgrade2018_realistic_v11-v1/100000/43323A2D-8655-B243-8FDE-894D3E3C3F8F.root'
p391
aS'/store/mc/RunIIFall18DRPremix/DYToEE_M-50_NNPDF31_TuneCP5_13TeV-powheg-pythia8/AODSIM/102X_upgrade2018_realistic_v11-v1/100001/EB97032C-6E60-A54F-AB7B-18D0101FA19A.root'
p392
aS'/store/mc/RunIIFall18DRPremix/DYToEE_M-50_NNPDF31_TuneCP5_13TeV-powheg-pythia8/AODSIM/102X_upgrade2018_realistic_v11-v1/100001/26B5E7F3-3F56-BE49-B815-C6ABD4BD4D2D.root'
p393
aS'/store/mc/RunIIFall18DRPremix/DYToEE_M-50_NNPDF31_TuneCP5_13TeV-powheg-pythia8/AODSIM/102X_upgrade2018_realistic_v11-v1/100001/6C6207D2-C411-4A45-965E-2CC9D87F10F8.root'
p394
aS'/store/mc/RunIIFall18DRPremix/DYToEE_M-50_NNPDF31_TuneCP5_13TeV-powheg-pythia8/AODSIM/102X_upgrade2018_realistic_v11-v1/100001/BD3F7448-7CD1-8948-B669-2831A534C7AD.root'
p395
aS'/store/mc/RunIIFall18DRPremix/DYToEE_M-50_NNPDF31_TuneCP5_13TeV-powheg-pythia8/AODSIM/102X_upgrade2018_realistic_v11-v1/100001/24FFC255-BC64-2347-BE2E-424841F67BDD.root'
p396
aS'/store/mc/RunIIFall18DRPremix/DYToEE_M-50_NNPDF31_TuneCP5_13TeV-powheg-pythia8/AODSIM/102X_upgrade2018_realistic_v11-v1/100001/259F2AA4-B206-5B41-8CCB-F3A4F8F9BF23.root'
p397
aS'/store/mc/RunIIFall18DRPremix/DYToEE_M-50_NNPDF31_TuneCP5_13TeV-powheg-pythia8/AODSIM/102X_upgrade2018_realistic_v11-v1/100001/268D3B1E-B580-384D-93B2-904220EFB1CA.root'
p398
aS'/store/mc/RunIIFall18DRPremix/DYToEE_M-50_NNPDF31_TuneCP5_13TeV-powheg-pythia8/AODSIM/102X_upgrade2018_realistic_v11-v1/100001/B146DB36-34E1-9443-87C6-BA08A2A678E3.root'
p399
aS'/store/mc/RunIIFall18DRPremix/DYToEE_M-50_NNPDF31_TuneCP5_13TeV-powheg-pythia8/AODSIM/102X_upgrade2018_realistic_v11-v1/100001/0315D2D1-5E1D-9B42-8169-0FD0AE6FBA1B.root'
p400
aS'/store/mc/RunIIFall18DRPremix/DYToEE_M-50_NNPDF31_TuneCP5_13TeV-powheg-pythia8/AODSIM/102X_upgrade2018_realistic_v11-v1/100001/7072304F-5BBF-A24F-AF06-4E5CC3E2E2D5.root'
p401
aS'/store/mc/RunIIFall18DRPremix/DYToEE_M-50_NNPDF31_TuneCP5_13TeV-powheg-pythia8/AODSIM/102X_upgrade2018_realistic_v11-v1/100001/719D4D80-F1CB-464A-A0A1-4994BFA5CB94.root'
p402
aS'/store/mc/RunIIFall18DRPremix/DYToEE_M-50_NNPDF31_TuneCP5_13TeV-powheg-pythia8/AODSIM/102X_upgrade2018_realistic_v11-v1/100001/C21968BF-A680-9343-B3B2-029909B02614.root'
p403
aS'/store/mc/RunIIFall18DRPremix/DYToEE_M-50_NNPDF31_TuneCP5_13TeV-powheg-pythia8/AODSIM/102X_upgrade2018_realistic_v11-v1/100001/483A8E2A-3671-1643-BACB-E0297AB993E1.root'
p404
aS'/store/mc/RunIIFall18DRPremix/DYToEE_M-50_NNPDF31_TuneCP5_13TeV-powheg-pythia8/AODSIM/102X_upgrade2018_realistic_v11-v1/100001/87D1EB9B-2E3E-794B-8102-E9BB1CD8B271.root'
p405
aS'/store/mc/RunIIFall18DRPremix/DYToEE_M-50_NNPDF31_TuneCP5_13TeV-powheg-pythia8/AODSIM/102X_upgrade2018_realistic_v11-v1/100001/BF34DFBD-B3BB-6B45-B1E0-31B013C279A4.root'
p406
aS'/store/mc/RunIIFall18DRPremix/DYToEE_M-50_NNPDF31_TuneCP5_13TeV-powheg-pythia8/AODSIM/102X_upgrade2018_realistic_v11-v1/100000/4597F2F4-E256-4245-8EF1-736EEFBA7469.root'
p407
aS'/store/mc/RunIIFall18DRPremix/DYToEE_M-50_NNPDF31_TuneCP5_13TeV-powheg-pythia8/AODSIM/102X_upgrade2018_realistic_v11-v1/100000/C153E4CF-683E-4A47-80CE-92F2470636E9.root'
p408
aS'/store/mc/RunIIFall18DRPremix/DYToEE_M-50_NNPDF31_TuneCP5_13TeV-powheg-pythia8/AODSIM/102X_upgrade2018_realistic_v11-v1/100000/9DA972CB-01FE-BB46-B122-4C55CF03D8E8.root'
p409
aS'/store/mc/RunIIFall18DRPremix/DYToEE_M-50_NNPDF31_TuneCP5_13TeV-powheg-pythia8/AODSIM/102X_upgrade2018_realistic_v11-v1/100000/B0CCB1D1-D78D-0C43-8E3F-075B3EA221BB.root'
p410
aS'/store/mc/RunIIFall18DRPremix/DYToEE_M-50_NNPDF31_TuneCP5_13TeV-powheg-pythia8/AODSIM/102X_upgrade2018_realistic_v11-v1/100000/37CD52B4-ADCE-5B45-9701-06730BF97F5B.root'
p411
aS'/store/mc/RunIIFall18DRPremix/DYToEE_M-50_NNPDF31_TuneCP5_13TeV-powheg-pythia8/AODSIM/102X_upgrade2018_realistic_v11-v1/100000/63941FB6-5881-014D-A373-5655B5B3B839.root'
p412
aS'/store/mc/RunIIFall18DRPremix/DYToEE_M-50_NNPDF31_TuneCP5_13TeV-powheg-pythia8/AODSIM/102X_upgrade2018_realistic_v11-v1/100000/83DD784B-66EC-D642-813E-426559C58BFE.root'
p413
aS'/store/mc/RunIIFall18DRPremix/DYToEE_M-50_NNPDF31_TuneCP5_13TeV-powheg-pythia8/AODSIM/102X_upgrade2018_realistic_v11-v1/100000/046869E5-360D-FA45-9960-1F2CD19DDD32.root'
p414
aS'/store/mc/RunIIFall18DRPremix/DYToEE_M-50_NNPDF31_TuneCP5_13TeV-powheg-pythia8/AODSIM/102X_upgrade2018_realistic_v11-v1/100000/EE2E6E9D-61FA-1B47-8444-83B5CDCBB355.root'
p415
aS'/store/mc/RunIIFall18DRPremix/DYToEE_M-50_NNPDF31_TuneCP5_13TeV-powheg-pythia8/AODSIM/102X_upgrade2018_realistic_v11-v1/100000/D88A7D9D-80A1-AE47-9535-0C3D8B2C11FF.root'
p416
aS'/store/mc/RunIIFall18DRPremix/DYToEE_M-50_NNPDF31_TuneCP5_13TeV-powheg-pythia8/AODSIM/102X_upgrade2018_realistic_v11-v1/100000/1DC00148-15CC-B647-837C-75629296C2A6.root'
p417
aS'/store/mc/RunIIFall18DRPremix/DYToEE_M-50_NNPDF31_TuneCP5_13TeV-powheg-pythia8/AODSIM/102X_upgrade2018_realistic_v11-v1/100000/BFE49A23-EED6-964D-A1C5-C4D71764756F.root'
p418
aS'/store/mc/RunIIFall18DRPremix/DYToEE_M-50_NNPDF31_TuneCP5_13TeV-powheg-pythia8/AODSIM/102X_upgrade2018_realistic_v11-v1/100000/CE1D52A0-3744-E34E-9BCD-A4BEC41C01E0.root'
p419
aS'/store/mc/RunIIFall18DRPremix/DYToEE_M-50_NNPDF31_TuneCP5_13TeV-powheg-pythia8/AODSIM/102X_upgrade2018_realistic_v11-v1/100000/38A90CB0-BA6B-8649-8183-5145E7358F01.root'
p420
aS'/store/mc/RunIIFall18DRPremix/DYToEE_M-50_NNPDF31_TuneCP5_13TeV-powheg-pythia8/AODSIM/102X_upgrade2018_realistic_v11-v1/100000/6C88602A-D59A-4643-86AA-EB1ED9C8081F.root'
p421
aS'/store/mc/RunIIFall18DRPremix/DYToEE_M-50_NNPDF31_TuneCP5_13TeV-powheg-pythia8/AODSIM/102X_upgrade2018_realistic_v11-v1/100000/EF7CE671-3140-DF4D-86A5-AAE50F165F42.root'
p422
aS'/store/mc/RunIIFall18DRPremix/DYToEE_M-50_NNPDF31_TuneCP5_13TeV-powheg-pythia8/AODSIM/102X_upgrade2018_realistic_v11-v1/100000/7750B89D-88D9-8542-AD8B-30D9777265FA.root'
p423
aS'/store/mc/RunIIFall18DRPremix/DYToEE_M-50_NNPDF31_TuneCP5_13TeV-powheg-pythia8/AODSIM/102X_upgrade2018_realistic_v11-v1/100000/65587442-65AD-EA43-AB51-4C00152FE4D1.root'
p424
aS'/store/mc/RunIIFall18DRPremix/DYToEE_M-50_NNPDF31_TuneCP5_13TeV-powheg-pythia8/AODSIM/102X_upgrade2018_realistic_v11-v1/100000/3986B845-A4CB-554F-ABC0-9228DCFD66B7.root'
p425
aS'/store/mc/RunIIFall18DRPremix/DYToEE_M-50_NNPDF31_TuneCP5_13TeV-powheg-pythia8/AODSIM/102X_upgrade2018_realistic_v11-v1/100000/F8906363-FA13-6044-85F3-D88C77CAF38F.root'
p426
aS'/store/mc/RunIIFall18DRPremix/DYToEE_M-50_NNPDF31_TuneCP5_13TeV-powheg-pythia8/AODSIM/102X_upgrade2018_realistic_v11-v1/100000/F5FB4D74-F0A8-4C40-8398-3166B1A6E163.root'
p427
aS'/store/mc/RunIIFall18DRPremix/DYToEE_M-50_NNPDF31_TuneCP5_13TeV-powheg-pythia8/AODSIM/102X_upgrade2018_realistic_v11-v1/100000/A377A701-5FDD-EE43-8223-43436734E5E8.root'
p428
aS'/store/mc/RunIIFall18DRPremix/DYToEE_M-50_NNPDF31_TuneCP5_13TeV-powheg-pythia8/AODSIM/102X_upgrade2018_realistic_v11-v1/100000/221556E6-3BF9-FA45-ACE3-03D05F8A2E1F.root'
p429
aS'/store/mc/RunIIFall18DRPremix/DYToEE_M-50_NNPDF31_TuneCP5_13TeV-powheg-pythia8/AODSIM/102X_upgrade2018_realistic_v11-v1/100000/B0657098-25DB-7248-A717-A48B65F8EAC9.root'
p430
aS'/store/mc/RunIIFall18DRPremix/DYToEE_M-50_NNPDF31_TuneCP5_13TeV-powheg-pythia8/AODSIM/102X_upgrade2018_realistic_v11-v1/100000/7B05854E-DE37-5D43-B3A8-55504BE2F98C.root'
p431
aS'/store/mc/RunIIFall18DRPremix/DYToEE_M-50_NNPDF31_TuneCP5_13TeV-powheg-pythia8/AODSIM/102X_upgrade2018_realistic_v11-v1/100000/C0B4C917-3E0A-8047-82CC-02BF6FFD3E52.root'
p432
aS'/store/mc/RunIIFall18DRPremix/DYToEE_M-50_NNPDF31_TuneCP5_13TeV-powheg-pythia8/AODSIM/102X_upgrade2018_realistic_v11-v1/100000/01C7F5CB-1E36-C640-A145-AC584FE1F2F5.root'
p433
aS'/store/mc/RunIIFall18DRPremix/DYToEE_M-50_NNPDF31_TuneCP5_13TeV-powheg-pythia8/AODSIM/102X_upgrade2018_realistic_v11-v1/100000/39C4CEA0-479A-F243-B5C9-B0382ED03A80.root'
p434
aS'/store/mc/RunIIFall18DRPremix/DYToEE_M-50_NNPDF31_TuneCP5_13TeV-powheg-pythia8/AODSIM/102X_upgrade2018_realistic_v11-v1/100000/53DD474B-4CB4-FB49-BAC3-9C3F02518D48.root'
p435
aS'/store/mc/RunIIFall18DRPremix/DYToEE_M-50_NNPDF31_TuneCP5_13TeV-powheg-pythia8/AODSIM/102X_upgrade2018_realistic_v11-v1/100000/86DC4138-BB96-194B-AF6E-D5629248C052.root'
p436
aS'/store/mc/RunIIFall18DRPremix/DYToEE_M-50_NNPDF31_TuneCP5_13TeV-powheg-pythia8/AODSIM/102X_upgrade2018_realistic_v11-v1/100000/960065AA-2743-2A46-BD73-45CF168980A3.root'
p437
aS'/store/mc/RunIIFall18DRPremix/DYToEE_M-50_NNPDF31_TuneCP5_13TeV-powheg-pythia8/AODSIM/102X_upgrade2018_realistic_v11-v1/100000/AE1EB503-7BE7-344F-BDA1-736A2DEE8F75.root'
p438
aS'/store/mc/RunIIFall18DRPremix/DYToEE_M-50_NNPDF31_TuneCP5_13TeV-powheg-pythia8/AODSIM/102X_upgrade2018_realistic_v11-v1/100000/F81878C6-5166-5E43-9392-53DAEB15E817.root'
p439
aS'/store/mc/RunIIFall18DRPremix/DYToEE_M-50_NNPDF31_TuneCP5_13TeV-powheg-pythia8/AODSIM/102X_upgrade2018_realistic_v11-v1/100000/915E764E-A82F-C842-A97E-66171FBF83BB.root'
p440
aS'/store/mc/RunIIFall18DRPremix/DYToEE_M-50_NNPDF31_TuneCP5_13TeV-powheg-pythia8/AODSIM/102X_upgrade2018_realistic_v11-v1/100000/39D9A710-3A14-8D4D-A2D5-43959A7A3DE7.root'
p441
aS'/store/mc/RunIIFall18DRPremix/DYToEE_M-50_NNPDF31_TuneCP5_13TeV-powheg-pythia8/AODSIM/102X_upgrade2018_realistic_v11-v1/100000/3C686823-3CA0-CA40-A13A-15E5E89C35DE.root'
p442
aS'/store/mc/RunIIFall18DRPremix/DYToEE_M-50_NNPDF31_TuneCP5_13TeV-powheg-pythia8/AODSIM/102X_upgrade2018_realistic_v11-v1/100000/D41D0C15-D376-F845-90F9-7A1A1D5CA219.root'
p443
aS'/store/mc/RunIIFall18DRPremix/DYToEE_M-50_NNPDF31_TuneCP5_13TeV-powheg-pythia8/AODSIM/102X_upgrade2018_realistic_v11-v1/100000/BB860EF6-DCD2-3E41-9AD3-C778957B81B3.root'
p444
aS'/store/mc/RunIIFall18DRPremix/DYToEE_M-50_NNPDF31_TuneCP5_13TeV-powheg-pythia8/AODSIM/102X_upgrade2018_realistic_v11-v1/100000/6F8C538A-8515-464B-A21F-CFCEB5F0097F.root'
p445
aS'/store/mc/RunIIFall18DRPremix/DYToEE_M-50_NNPDF31_TuneCP5_13TeV-powheg-pythia8/AODSIM/102X_upgrade2018_realistic_v11-v1/100000/7169153B-C379-9B40-86D5-6383FFD1D066.root'
p446
aS'/store/mc/RunIIFall18DRPremix/DYToEE_M-50_NNPDF31_TuneCP5_13TeV-powheg-pythia8/AODSIM/102X_upgrade2018_realistic_v11-v1/100000/A13212B8-45AB-5246-8B7F-1F51A93C2082.root'
p447
aS'/store/mc/RunIIFall18DRPremix/DYToEE_M-50_NNPDF31_TuneCP5_13TeV-powheg-pythia8/AODSIM/102X_upgrade2018_realistic_v11-v1/100000/7876D941-3219-AB43-8535-451C9EBDAC3B.root'
p448
aS'/store/mc/RunIIFall18DRPremix/DYToEE_M-50_NNPDF31_TuneCP5_13TeV-powheg-pythia8/AODSIM/102X_upgrade2018_realistic_v11-v1/100000/A547F5E0-377B-1C44-9DEC-26A258E66521.root'
p449
aS'/store/mc/RunIIFall18DRPremix/DYToEE_M-50_NNPDF31_TuneCP5_13TeV-powheg-pythia8/AODSIM/102X_upgrade2018_realistic_v11-v1/100000/580C1DB6-EB12-9A4C-9A08-0AABAF7D2BFE.root'
p450
aS'/store/mc/RunIIFall18DRPremix/DYToEE_M-50_NNPDF31_TuneCP5_13TeV-powheg-pythia8/AODSIM/102X_upgrade2018_realistic_v11-v1/100000/33A7CA7B-787D-8142-8CEE-D459BE8623FF.root'
p451
aS'/store/mc/RunIIFall18DRPremix/DYToEE_M-50_NNPDF31_TuneCP5_13TeV-powheg-pythia8/AODSIM/102X_upgrade2018_realistic_v11-v1/100000/2C63173E-A6B0-4245-87E8-7720433F4075.root'
p452
aS'/store/mc/RunIIFall18DRPremix/DYToEE_M-50_NNPDF31_TuneCP5_13TeV-powheg-pythia8/AODSIM/102X_upgrade2018_realistic_v11-v1/100000/824E038D-C181-B94D-A1D4-5C5E22C86850.root'
p453
aS'/store/mc/RunIIFall18DRPremix/DYToEE_M-50_NNPDF31_TuneCP5_13TeV-powheg-pythia8/AODSIM/102X_upgrade2018_realistic_v11-v1/100000/CD4E0BFF-7293-5548-A4E3-4007261293F3.root'
p454
aS'/store/mc/RunIIFall18DRPremix/DYToEE_M-50_NNPDF31_TuneCP5_13TeV-powheg-pythia8/AODSIM/102X_upgrade2018_realistic_v11-v1/100000/C2E8C5C0-68B9-8940-8AB8-43E94AA0EBBB.root'
p455
aS'/store/mc/RunIIFall18DRPremix/DYToEE_M-50_NNPDF31_TuneCP5_13TeV-powheg-pythia8/AODSIM/102X_upgrade2018_realistic_v11-v1/100000/E73E5806-84B5-2849-BCD1-C4C9F19B62B9.root'
p456
aS'/store/mc/RunIIFall18DRPremix/DYToEE_M-50_NNPDF31_TuneCP5_13TeV-powheg-pythia8/AODSIM/102X_upgrade2018_realistic_v11-v1/100000/A0231A17-94E3-C84D-93D1-51F64F3FE14C.root'
p457
aS'/store/mc/RunIIFall18DRPremix/DYToEE_M-50_NNPDF31_TuneCP5_13TeV-powheg-pythia8/AODSIM/102X_upgrade2018_realistic_v11-v1/100000/A8190C41-E6AA-4945-AB57-D1BF369C2A11.root'
p458
aS'/store/mc/RunIIFall18DRPremix/DYToEE_M-50_NNPDF31_TuneCP5_13TeV-powheg-pythia8/AODSIM/102X_upgrade2018_realistic_v11-v1/100000/9371857C-19AE-D941-9909-F686206FB8A7.root'
p459
aS'/store/mc/RunIIFall18DRPremix/DYToEE_M-50_NNPDF31_TuneCP5_13TeV-powheg-pythia8/AODSIM/102X_upgrade2018_realistic_v11-v1/100000/EC7AD483-0622-6B4B-B558-B34147C685E7.root'
p460
aS'/store/mc/RunIIFall18DRPremix/DYToEE_M-50_NNPDF31_TuneCP5_13TeV-powheg-pythia8/AODSIM/102X_upgrade2018_realistic_v11-v1/100000/88E81713-5FB8-2246-97F0-82B33F4FAD32.root'
p461
aS'/store/mc/RunIIFall18DRPremix/DYToEE_M-50_NNPDF31_TuneCP5_13TeV-powheg-pythia8/AODSIM/102X_upgrade2018_realistic_v11-v1/100000/A91121E5-2F2F-BA4F-9CDA-B7EBC58303CF.root'
p462
aS'/store/mc/RunIIFall18DRPremix/DYToEE_M-50_NNPDF31_TuneCP5_13TeV-powheg-pythia8/AODSIM/102X_upgrade2018_realistic_v11-v1/100000/E0135656-CCF6-DC46-ABA7-78607D43718E.root'
p463
aS'/store/mc/RunIIFall18DRPremix/DYToEE_M-50_NNPDF31_TuneCP5_13TeV-powheg-pythia8/AODSIM/102X_upgrade2018_realistic_v11-v1/100000/E900305E-FB37-5545-B5DA-E26B5EAC72B1.root'
p464
aS'/store/mc/RunIIFall18DRPremix/DYToEE_M-50_NNPDF31_TuneCP5_13TeV-powheg-pythia8/AODSIM/102X_upgrade2018_realistic_v11-v1/100000/3CA0FD3F-C52D-B14B-B059-91A9CBA33EDE.root'
p465
aS'/store/mc/RunIIFall18DRPremix/DYToEE_M-50_NNPDF31_TuneCP5_13TeV-powheg-pythia8/AODSIM/102X_upgrade2018_realistic_v11-v1/100000/52D5B81B-85FC-144F-80E7-64BA7D0B065E.root'
p466
aS'/store/mc/RunIIFall18DRPremix/DYToEE_M-50_NNPDF31_TuneCP5_13TeV-powheg-pythia8/AODSIM/102X_upgrade2018_realistic_v11-v1/100000/DB91DA32-33B1-7946-8F23-19D908DD41BA.root'
p467
aS'/store/mc/RunIIFall18DRPremix/DYToEE_M-50_NNPDF31_TuneCP5_13TeV-powheg-pythia8/AODSIM/102X_upgrade2018_realistic_v11-v1/100000/790A458A-22B4-BE4E-8554-4E5148D355CB.root'
p468
aS'/store/mc/RunIIFall18DRPremix/DYToEE_M-50_NNPDF31_TuneCP5_13TeV-powheg-pythia8/AODSIM/102X_upgrade2018_realistic_v11-v1/100000/CC984FBE-260F-BA43-97D2-8ECCC1E6DB38.root'
p469
aS'/store/mc/RunIIFall18DRPremix/DYToEE_M-50_NNPDF31_TuneCP5_13TeV-powheg-pythia8/AODSIM/102X_upgrade2018_realistic_v11-v1/100000/F7C85482-6F4F-2941-8337-8A5C91333E24.root'
p470
aS'/store/mc/RunIIFall18DRPremix/DYToEE_M-50_NNPDF31_TuneCP5_13TeV-powheg-pythia8/AODSIM/102X_upgrade2018_realistic_v11-v1/100000/74504E99-5C19-4C49-B924-30A341377B14.root'
p471
aS'/store/mc/RunIIFall18DRPremix/DYToEE_M-50_NNPDF31_TuneCP5_13TeV-powheg-pythia8/AODSIM/102X_upgrade2018_realistic_v11-v1/100000/36EBFBCB-0F01-C848-B014-44FC9AD71C67.root'
p472
aS'/store/mc/RunIIFall18DRPremix/DYToEE_M-50_NNPDF31_TuneCP5_13TeV-powheg-pythia8/AODSIM/102X_upgrade2018_realistic_v11-v1/100000/99CDCF24-2F02-514D-AFB8-4EEDD85CE432.root'
p473
aS'/store/mc/RunIIFall18DRPremix/DYToEE_M-50_NNPDF31_TuneCP5_13TeV-powheg-pythia8/AODSIM/102X_upgrade2018_realistic_v11-v1/100001/52F35807-F71E-E346-BE20-C1FA1E4EA75A.root'
p474
aS'/store/mc/RunIIFall18DRPremix/DYToEE_M-50_NNPDF31_TuneCP5_13TeV-powheg-pythia8/AODSIM/102X_upgrade2018_realistic_v11-v1/100001/89EA00B8-ECA3-3844-B769-337B0AB9B42B.root'
p475
aS'/store/mc/RunIIFall18DRPremix/DYToEE_M-50_NNPDF31_TuneCP5_13TeV-powheg-pythia8/AODSIM/102X_upgrade2018_realistic_v11-v1/100001/BC6488C6-DF6A-744A-9156-744C21A97585.root'
p476
aS'/store/mc/RunIIFall18DRPremix/DYToEE_M-50_NNPDF31_TuneCP5_13TeV-powheg-pythia8/AODSIM/102X_upgrade2018_realistic_v11-v1/100001/62CF742C-D77D-F14E-B598-BC7962289B5F.root'
p477
aS'/store/mc/RunIIFall18DRPremix/DYToEE_M-50_NNPDF31_TuneCP5_13TeV-powheg-pythia8/AODSIM/102X_upgrade2018_realistic_v11-v1/100001/FE34EBD5-B16B-B84D-A0DE-1768777D77B9.root'
p478
aS'/store/mc/RunIIFall18DRPremix/DYToEE_M-50_NNPDF31_TuneCP5_13TeV-powheg-pythia8/AODSIM/102X_upgrade2018_realistic_v11-v1/100001/4700FCC5-A0AA-F04B-9C99-7B9456036FA5.root'
p479
aS'/store/mc/RunIIFall18DRPremix/DYToEE_M-50_NNPDF31_TuneCP5_13TeV-powheg-pythia8/AODSIM/102X_upgrade2018_realistic_v11-v1/100000/5D6F8938-1475-6249-8483-5395840A7C31.root'
p480
aS'/store/mc/RunIIFall18DRPremix/DYToEE_M-50_NNPDF31_TuneCP5_13TeV-powheg-pythia8/AODSIM/102X_upgrade2018_realistic_v11-v1/100000/1B563DDB-1F8B-AF48-B0E8-858F1F051D12.root'
p481
aS'/store/mc/RunIIFall18DRPremix/DYToEE_M-50_NNPDF31_TuneCP5_13TeV-powheg-pythia8/AODSIM/102X_upgrade2018_realistic_v11-v1/100000/82B4CFDD-CC3F-6242-B886-71B4E2CBEC47.root'
p482
aS'/store/mc/RunIIFall18DRPremix/DYToEE_M-50_NNPDF31_TuneCP5_13TeV-powheg-pythia8/AODSIM/102X_upgrade2018_realistic_v11-v1/100000/02AD698B-F2D1-2B48-8FC1-A036B6D13B37.root'
p483
aS'/store/mc/RunIIFall18DRPremix/DYToEE_M-50_NNPDF31_TuneCP5_13TeV-powheg-pythia8/AODSIM/102X_upgrade2018_realistic_v11-v1/100000/7C9DB388-B20E-D34B-84CF-F82BCDBF81DF.root'
p484
aS'/store/mc/RunIIFall18DRPremix/DYToEE_M-50_NNPDF31_TuneCP5_13TeV-powheg-pythia8/AODSIM/102X_upgrade2018_realistic_v11-v1/100000/7F1483FD-1766-C240-865D-92B6457F6FD1.root'
p485
aS'/store/mc/RunIIFall18DRPremix/DYToEE_M-50_NNPDF31_TuneCP5_13TeV-powheg-pythia8/AODSIM/102X_upgrade2018_realistic_v11-v1/100000/6C3BF88B-2C7C-5948-BFD0-B1E3009F73DE.root'
p486
aS'/store/mc/RunIIFall18DRPremix/DYToEE_M-50_NNPDF31_TuneCP5_13TeV-powheg-pythia8/AODSIM/102X_upgrade2018_realistic_v11-v1/100000/2506C368-D027-034D-8E40-6ADA33D574DA.root'
p487
aS'/store/mc/RunIIFall18DRPremix/DYToEE_M-50_NNPDF31_TuneCP5_13TeV-powheg-pythia8/AODSIM/102X_upgrade2018_realistic_v11-v1/100000/8962907E-1878-8942-AB1F-909414845C3C.root'
p488
aS'/store/mc/RunIIFall18DRPremix/DYToEE_M-50_NNPDF31_TuneCP5_13TeV-powheg-pythia8/AODSIM/102X_upgrade2018_realistic_v11-v1/100000/609C5EE2-11A9-0C4F-90C4-08B37DA552E8.root'
p489
aS'/store/mc/RunIIFall18DRPremix/DYToEE_M-50_NNPDF31_TuneCP5_13TeV-powheg-pythia8/AODSIM/102X_upgrade2018_realistic_v11-v1/100000/41035218-A584-EE49-80AB-B0E8289BD26A.root'
p490
aS'/store/mc/RunIIFall18DRPremix/DYToEE_M-50_NNPDF31_TuneCP5_13TeV-powheg-pythia8/AODSIM/102X_upgrade2018_realistic_v11-v1/100000/4701C88A-1B28-6048-84BF-DC27791901B8.root'
p491
aS'/store/mc/RunIIFall18DRPremix/DYToEE_M-50_NNPDF31_TuneCP5_13TeV-powheg-pythia8/AODSIM/102X_upgrade2018_realistic_v11-v1/100000/9326EF5C-29CF-7D47-AD03-C0674C10154F.root'
p492
aS'/store/mc/RunIIFall18DRPremix/DYToEE_M-50_NNPDF31_TuneCP5_13TeV-powheg-pythia8/AODSIM/102X_upgrade2018_realistic_v11-v1/100000/1CBC70BC-4821-3F47-BC06-3E02391CC919.root'
p493
aS'/store/mc/RunIIFall18DRPremix/DYToEE_M-50_NNPDF31_TuneCP5_13TeV-powheg-pythia8/AODSIM/102X_upgrade2018_realistic_v11-v1/100000/7CBE2506-2772-CD43-B55A-45E5822D1E8C.root'
p494
aS'/store/mc/RunIIFall18DRPremix/DYToEE_M-50_NNPDF31_TuneCP5_13TeV-powheg-pythia8/AODSIM/102X_upgrade2018_realistic_v11-v1/100000/083E40A0-7F0F-5949-9CAE-A90B5073CA18.root'
p495
aS'/store/mc/RunIIFall18DRPremix/DYToEE_M-50_NNPDF31_TuneCP5_13TeV-powheg-pythia8/AODSIM/102X_upgrade2018_realistic_v11-v1/100000/8A7F883C-3949-2549-BAE5-05F38F5CB66D.root'
p496
aS'/store/mc/RunIIFall18DRPremix/DYToEE_M-50_NNPDF31_TuneCP5_13TeV-powheg-pythia8/AODSIM/102X_upgrade2018_realistic_v11-v1/100000/7335D5E9-D7F9-2E47-8FD1-307ED6C3C7CC.root'
p497
aS'/store/mc/RunIIFall18DRPremix/DYToEE_M-50_NNPDF31_TuneCP5_13TeV-powheg-pythia8/AODSIM/102X_upgrade2018_realistic_v11-v1/100000/27BDFAF2-173F-D04A-8464-9968A9E1C4F4.root'
p498
aS'/store/mc/RunIIFall18DRPremix/DYToEE_M-50_NNPDF31_TuneCP5_13TeV-powheg-pythia8/AODSIM/102X_upgrade2018_realistic_v11-v1/100000/00C808AD-F41A-5943-A235-A5DBFD51A668.root'
p499
aS'/store/mc/RunIIFall18DRPremix/DYToEE_M-50_NNPDF31_TuneCP5_13TeV-powheg-pythia8/AODSIM/102X_upgrade2018_realistic_v11-v1/100000/C5DAFB6D-941C-D44E-885F-A2EA9236B1A5.root'
p500
aS'/store/mc/RunIIFall18DRPremix/DYToEE_M-50_NNPDF31_TuneCP5_13TeV-powheg-pythia8/AODSIM/102X_upgrade2018_realistic_v11-v1/100000/F4BC0BF3-10E2-6749-9039-91C6E58BB897.root'
p501
aS'/store/mc/RunIIFall18DRPremix/DYToEE_M-50_NNPDF31_TuneCP5_13TeV-powheg-pythia8/AODSIM/102X_upgrade2018_realistic_v11-v1/100000/B6BD78B5-278B-A143-9E7B-2AE376480594.root'
p502
aS'/store/mc/RunIIFall18DRPremix/DYToEE_M-50_NNPDF31_TuneCP5_13TeV-powheg-pythia8/AODSIM/102X_upgrade2018_realistic_v11-v1/100000/47463ADD-971A-4749-94D5-72A1B0BE61C6.root'
p503
aS'/store/mc/RunIIFall18DRPremix/DYToEE_M-50_NNPDF31_TuneCP5_13TeV-powheg-pythia8/AODSIM/102X_upgrade2018_realistic_v11-v1/100000/B40AF271-06BE-0246-8713-6C54519450C9.root'
p504
aS'/store/mc/RunIIFall18DRPremix/DYToEE_M-50_NNPDF31_TuneCP5_13TeV-powheg-pythia8/AODSIM/102X_upgrade2018_realistic_v11-v1/100000/AD5301C1-1348-8049-85BA-FEBCEEC858DC.root'
p505
aS'/store/mc/RunIIFall18DRPremix/DYToEE_M-50_NNPDF31_TuneCP5_13TeV-powheg-pythia8/AODSIM/102X_upgrade2018_realistic_v11-v1/100000/6F2995C7-A3DA-DF4B-98DB-A3F5B356E332.root'
p506
aS'/store/mc/RunIIFall18DRPremix/DYToEE_M-50_NNPDF31_TuneCP5_13TeV-powheg-pythia8/AODSIM/102X_upgrade2018_realistic_v11-v1/100000/1A802B45-BE8A-154E-9B9D-98A767D0B0E5.root'
p507
aS'/store/mc/RunIIFall18DRPremix/DYToEE_M-50_NNPDF31_TuneCP5_13TeV-powheg-pythia8/AODSIM/102X_upgrade2018_realistic_v11-v1/100000/150EB846-A14E-6C42-9263-DE5C3CC87E46.root'
p508
aS'/store/mc/RunIIFall18DRPremix/DYToEE_M-50_NNPDF31_TuneCP5_13TeV-powheg-pythia8/AODSIM/102X_upgrade2018_realistic_v11-v1/100000/40979495-C413-2F45-85F4-4B94E9EBA561.root'
p509
aS'/store/mc/RunIIFall18DRPremix/DYToEE_M-50_NNPDF31_TuneCP5_13TeV-powheg-pythia8/AODSIM/102X_upgrade2018_realistic_v11-v1/100000/BC8B8291-98B3-BD4A-AFCA-DDCBAA0A03AF.root'
p510
aS'/store/mc/RunIIFall18DRPremix/DYToEE_M-50_NNPDF31_TuneCP5_13TeV-powheg-pythia8/AODSIM/102X_upgrade2018_realistic_v11-v1/100000/24496FF1-4436-B54B-AF65-C6480ED0A2B7.root'
p511
aS'/store/mc/RunIIFall18DRPremix/DYToEE_M-50_NNPDF31_TuneCP5_13TeV-powheg-pythia8/AODSIM/102X_upgrade2018_realistic_v11-v1/100000/C61EAB92-225C-E148-8294-84A627DC4AFF.root'
p512
aS'/store/mc/RunIIFall18DRPremix/DYToEE_M-50_NNPDF31_TuneCP5_13TeV-powheg-pythia8/AODSIM/102X_upgrade2018_realistic_v11-v1/100000/1F515DC0-703F-E746-B62A-CB4D77C4552A.root'
p513
aS'/store/mc/RunIIFall18DRPremix/DYToEE_M-50_NNPDF31_TuneCP5_13TeV-powheg-pythia8/AODSIM/102X_upgrade2018_realistic_v11-v1/100000/D771A8A5-5FA6-8341-A445-BDDA989D2F4C.root'
p514
aS'/store/mc/RunIIFall18DRPremix/DYToEE_M-50_NNPDF31_TuneCP5_13TeV-powheg-pythia8/AODSIM/102X_upgrade2018_realistic_v11-v1/100000/1FDF6B63-0FE6-5140-86AB-BED1FA0C89F4.root'
p515
aS'/store/mc/RunIIFall18DRPremix/DYToEE_M-50_NNPDF31_TuneCP5_13TeV-powheg-pythia8/AODSIM/102X_upgrade2018_realistic_v11-v1/100000/C21E9BED-8A25-5E45-B4E2-892F7A005504.root'
p516
aS'/store/mc/RunIIFall18DRPremix/DYToEE_M-50_NNPDF31_TuneCP5_13TeV-powheg-pythia8/AODSIM/102X_upgrade2018_realistic_v11-v1/100000/B6579291-2980-0648-82A8-2222E01A46B9.root'
p517
aS'/store/mc/RunIIFall18DRPremix/DYToEE_M-50_NNPDF31_TuneCP5_13TeV-powheg-pythia8/AODSIM/102X_upgrade2018_realistic_v11-v1/100000/E53BC9D9-81F7-3D4D-9ACA-F1688F439A28.root'
p518
aS'/store/mc/RunIIFall18DRPremix/DYToEE_M-50_NNPDF31_TuneCP5_13TeV-powheg-pythia8/AODSIM/102X_upgrade2018_realistic_v11-v1/100000/B97DB8A0-A982-B843-8241-8CD411DC39EA.root'
p519
aS'/store/mc/RunIIFall18DRPremix/DYToEE_M-50_NNPDF31_TuneCP5_13TeV-powheg-pythia8/AODSIM/102X_upgrade2018_realistic_v11-v1/100000/9D27D762-DF1B-3E4C-AD9C-DC181F4EEF1A.root'
p520
aS'/store/mc/RunIIFall18DRPremix/DYToEE_M-50_NNPDF31_TuneCP5_13TeV-powheg-pythia8/AODSIM/102X_upgrade2018_realistic_v11-v1/100000/25CA0377-1BD8-144A-9DC7-0B068EFE8B4D.root'
p521
aS'/store/mc/RunIIFall18DRPremix/DYToEE_M-50_NNPDF31_TuneCP5_13TeV-powheg-pythia8/AODSIM/102X_upgrade2018_realistic_v11-v1/100000/62C9456C-1A18-6B49-BBDA-1028137DF383.root'
p522
aS'/store/mc/RunIIFall18DRPremix/DYToEE_M-50_NNPDF31_TuneCP5_13TeV-powheg-pythia8/AODSIM/102X_upgrade2018_realistic_v11-v1/100000/B92B25F3-F42A-C34F-8EDC-E1E22A427B82.root'
p523
aS'/store/mc/RunIIFall18DRPremix/DYToEE_M-50_NNPDF31_TuneCP5_13TeV-powheg-pythia8/AODSIM/102X_upgrade2018_realistic_v11-v1/100000/FADB745B-07D3-1346-A47E-E3BDECAC7ACF.root'
p524
aS'/store/mc/RunIIFall18DRPremix/DYToEE_M-50_NNPDF31_TuneCP5_13TeV-powheg-pythia8/AODSIM/102X_upgrade2018_realistic_v11-v1/100000/CEC3DF12-1A79-D84A-8D28-860838FECA41.root'
p525
aS'/store/mc/RunIIFall18DRPremix/DYToEE_M-50_NNPDF31_TuneCP5_13TeV-powheg-pythia8/AODSIM/102X_upgrade2018_realistic_v11-v1/100000/C2701EB2-BD76-DB47-A4C8-EA933AAB302E.root'
p526
aS'/store/mc/RunIIFall18DRPremix/DYToEE_M-50_NNPDF31_TuneCP5_13TeV-powheg-pythia8/AODSIM/102X_upgrade2018_realistic_v11-v1/100000/446705BD-36AC-6440-AB56-F8CB1BD6FE94.root'
p527
aS'/store/mc/RunIIFall18DRPremix/DYToEE_M-50_NNPDF31_TuneCP5_13TeV-powheg-pythia8/AODSIM/102X_upgrade2018_realistic_v11-v1/100000/B243D950-2F31-D64E-897C-A88301BCB2C3.root'
p528
aS'/store/mc/RunIIFall18DRPremix/DYToEE_M-50_NNPDF31_TuneCP5_13TeV-powheg-pythia8/AODSIM/102X_upgrade2018_realistic_v11-v1/100000/AC91272E-6C41-F641-9807-002767C70B40.root'
p529
aS'/store/mc/RunIIFall18DRPremix/DYToEE_M-50_NNPDF31_TuneCP5_13TeV-powheg-pythia8/AODSIM/102X_upgrade2018_realistic_v11-v1/100000/365BFEAE-2C78-834D-8E30-965F76C0A200.root'
p530
aS'/store/mc/RunIIFall18DRPremix/DYToEE_M-50_NNPDF31_TuneCP5_13TeV-powheg-pythia8/AODSIM/102X_upgrade2018_realistic_v11-v1/100000/E0C9526D-8ACB-224D-BE77-40D22BF4051B.root'
p531
aS'/store/mc/RunIIFall18DRPremix/DYToEE_M-50_NNPDF31_TuneCP5_13TeV-powheg-pythia8/AODSIM/102X_upgrade2018_realistic_v11-v1/100000/A91A9CAE-241E-624D-A577-1C2B51C030A2.root'
p532
aS'/store/mc/RunIIFall18DRPremix/DYToEE_M-50_NNPDF31_TuneCP5_13TeV-powheg-pythia8/AODSIM/102X_upgrade2018_realistic_v11-v1/100000/6F77C997-3DBD-8143-B726-9FF6FF7BF6C3.root'
p533
aS'/store/mc/RunIIFall18DRPremix/DYToEE_M-50_NNPDF31_TuneCP5_13TeV-powheg-pythia8/AODSIM/102X_upgrade2018_realistic_v11-v1/100000/75A6AEC3-7D5D-824A-B8CA-12AB2BE54C8F.root'
p534
aS'/store/mc/RunIIFall18DRPremix/DYToEE_M-50_NNPDF31_TuneCP5_13TeV-powheg-pythia8/AODSIM/102X_upgrade2018_realistic_v11-v1/100000/2A3E3D94-1CD2-564B-95F5-7F51083EA18C.root'
p535
aS'/store/mc/RunIIFall18DRPremix/DYToEE_M-50_NNPDF31_TuneCP5_13TeV-powheg-pythia8/AODSIM/102X_upgrade2018_realistic_v11-v1/100000/B9EACCF2-FA97-2945-BEB0-6F1D445BF469.root'
p536
aS'/store/mc/RunIIFall18DRPremix/DYToEE_M-50_NNPDF31_TuneCP5_13TeV-powheg-pythia8/AODSIM/102X_upgrade2018_realistic_v11-v1/100000/D3153B00-2C3B-1F4E-BF3E-2C67F8C0D064.root'
p537
aS'/store/mc/RunIIFall18DRPremix/DYToEE_M-50_NNPDF31_TuneCP5_13TeV-powheg-pythia8/AODSIM/102X_upgrade2018_realistic_v11-v1/100000/B9D90B62-16EC-904E-BDE2-1ED244019251.root'
p538
aS'/store/mc/RunIIFall18DRPremix/DYToEE_M-50_NNPDF31_TuneCP5_13TeV-powheg-pythia8/AODSIM/102X_upgrade2018_realistic_v11-v1/100000/7B74C564-F18B-C34E-94CB-E77B99C6541A.root'
p539
aS'/store/mc/RunIIFall18DRPremix/DYToEE_M-50_NNPDF31_TuneCP5_13TeV-powheg-pythia8/AODSIM/102X_upgrade2018_realistic_v11-v1/100000/0F3B2E2C-0C6B-D348-9461-56BF1324981A.root'
p540
aS'/store/mc/RunIIFall18DRPremix/DYToEE_M-50_NNPDF31_TuneCP5_13TeV-powheg-pythia8/AODSIM/102X_upgrade2018_realistic_v11-v1/100001/DE300FAB-45F3-4141-9D7F-113F781EC0FF.root'
p541
aS'/store/mc/RunIIFall18DRPremix/DYToEE_M-50_NNPDF31_TuneCP5_13TeV-powheg-pythia8/AODSIM/102X_upgrade2018_realistic_v11-v1/100000/67915B53-FB09-1249-9FFB-798E7F58A50B.root'
p542
aS'/store/mc/RunIIFall18DRPremix/DYToEE_M-50_NNPDF31_TuneCP5_13TeV-powheg-pythia8/AODSIM/102X_upgrade2018_realistic_v11-v1/100000/87A13543-21F9-F44B-843F-140FDA761F5A.root'
p543
aS'/store/mc/RunIIFall18DRPremix/DYToEE_M-50_NNPDF31_TuneCP5_13TeV-powheg-pythia8/AODSIM/102X_upgrade2018_realistic_v11-v1/100001/7A12D1C8-46D9-3D4E-ABFA-A3F601A71015.root'
p544
aS'/store/mc/RunIIFall18DRPremix/DYToEE_M-50_NNPDF31_TuneCP5_13TeV-powheg-pythia8/AODSIM/102X_upgrade2018_realistic_v11-v1/100001/635B1CF2-FAAD-D348-9381-A7BD7B2609FB.root'
p545
aS'/store/mc/RunIIFall18DRPremix/DYToEE_M-50_NNPDF31_TuneCP5_13TeV-powheg-pythia8/AODSIM/102X_upgrade2018_realistic_v11-v1/100000/FFAD91FD-16ED-2442-B024-E78ADABBAAB1.root'
p546
aS'/store/mc/RunIIFall18DRPremix/DYToEE_M-50_NNPDF31_TuneCP5_13TeV-powheg-pythia8/AODSIM/102X_upgrade2018_realistic_v11-v1/100001/04FCEBCD-F1AD-4047-A646-1F0C419F43F1.root'
p547
aS'/store/mc/RunIIFall18DRPremix/DYToEE_M-50_NNPDF31_TuneCP5_13TeV-powheg-pythia8/AODSIM/102X_upgrade2018_realistic_v11-v1/100001/3861779C-4388-0F48-AD66-9C6CC42E7A8A.root'
p548
aS'/store/mc/RunIIFall18DRPremix/DYToEE_M-50_NNPDF31_TuneCP5_13TeV-powheg-pythia8/AODSIM/102X_upgrade2018_realistic_v11-v1/100001/01F19459-11ED-2540-BBEB-30C90B55C32F.root'
p549
aS'/store/mc/RunIIFall18DRPremix/DYToEE_M-50_NNPDF31_TuneCP5_13TeV-powheg-pythia8/AODSIM/102X_upgrade2018_realistic_v11-v1/100001/D7A14E58-072D-9C49-AC48-338C18067F6D.root'
p550
aS'/store/mc/RunIIFall18DRPremix/DYToEE_M-50_NNPDF31_TuneCP5_13TeV-powheg-pythia8/AODSIM/102X_upgrade2018_realistic_v11-v1/100001/A38348AA-3EAD-6442-ABBF-4839EBB205DB.root'
p551
aS'/store/mc/RunIIFall18DRPremix/DYToEE_M-50_NNPDF31_TuneCP5_13TeV-powheg-pythia8/AODSIM/102X_upgrade2018_realistic_v11-v1/100001/34E132C6-9521-7840-8B38-CBF3332CD518.root'
p552
aS'/store/mc/RunIIFall18DRPremix/DYToEE_M-50_NNPDF31_TuneCP5_13TeV-powheg-pythia8/AODSIM/102X_upgrade2018_realistic_v11-v1/100001/88E95D97-2A56-CD46-AE4C-6D7246485869.root'
p553
aS'/store/mc/RunIIFall18DRPremix/DYToEE_M-50_NNPDF31_TuneCP5_13TeV-powheg-pythia8/AODSIM/102X_upgrade2018_realistic_v11-v1/100001/912B74A1-616C-3A4E-AD18-6AE2313FD7E5.root'
p554
aS'/store/mc/RunIIFall18DRPremix/DYToEE_M-50_NNPDF31_TuneCP5_13TeV-powheg-pythia8/AODSIM/102X_upgrade2018_realistic_v11-v1/100001/38A96333-7C8C-9043-9129-85BB61E0E71F.root'
p555
aS'/store/mc/RunIIFall18DRPremix/DYToEE_M-50_NNPDF31_TuneCP5_13TeV-powheg-pythia8/AODSIM/102X_upgrade2018_realistic_v11-v1/100001/B734D5E1-07A0-594B-A85A-38840F28FCC2.root'
p556
aS'/store/mc/RunIIFall18DRPremix/DYToEE_M-50_NNPDF31_TuneCP5_13TeV-powheg-pythia8/AODSIM/102X_upgrade2018_realistic_v11-v1/100001/F1889868-F4E4-1C4C-87F2-83F48DE1C116.root'
p557
aS'/store/mc/RunIIFall18DRPremix/DYToEE_M-50_NNPDF31_TuneCP5_13TeV-powheg-pythia8/AODSIM/102X_upgrade2018_realistic_v11-v1/100001/1CFB45A7-4C76-454A-99D9-68FAD911BAE2.root'
p558
aS'/store/mc/RunIIFall18DRPremix/DYToEE_M-50_NNPDF31_TuneCP5_13TeV-powheg-pythia8/AODSIM/102X_upgrade2018_realistic_v11-v1/100001/95B18640-B0D6-DB4F-92FE-50935C2FE3B8.root'
p559
aS'/store/mc/RunIIFall18DRPremix/DYToEE_M-50_NNPDF31_TuneCP5_13TeV-powheg-pythia8/AODSIM/102X_upgrade2018_realistic_v11-v1/100001/390B0A97-4F29-6D4A-8A4D-AC415DEE0C8A.root'
p560
aS'/store/mc/RunIIFall18DRPremix/DYToEE_M-50_NNPDF31_TuneCP5_13TeV-powheg-pythia8/AODSIM/102X_upgrade2018_realistic_v11-v1/100001/7C1B0F29-23AF-044D-92FB-51E1481A32FD.root'
p561
aS'/store/mc/RunIIFall18DRPremix/DYToEE_M-50_NNPDF31_TuneCP5_13TeV-powheg-pythia8/AODSIM/102X_upgrade2018_realistic_v11-v1/100001/756E2B93-DFC6-2647-B521-E1C483D7FDD6.root'
p562
aS'/store/mc/RunIIFall18DRPremix/DYToEE_M-50_NNPDF31_TuneCP5_13TeV-powheg-pythia8/AODSIM/102X_upgrade2018_realistic_v11-v1/100000/6600CE02-1279-DA43-AD52-E15DFD1EF644.root'
p563
aS'/store/mc/RunIIFall18DRPremix/DYToEE_M-50_NNPDF31_TuneCP5_13TeV-powheg-pythia8/AODSIM/102X_upgrade2018_realistic_v11-v1/100001/3961A9B1-43E0-6A41-9B32-7D42AFBB54B9.root'
p564
aS'/store/mc/RunIIFall18DRPremix/DYToEE_M-50_NNPDF31_TuneCP5_13TeV-powheg-pythia8/AODSIM/102X_upgrade2018_realistic_v11-v1/100001/6134FBEB-3011-F64A-8FBB-7CD7A46E9C53.root'
p565
aS'/store/mc/RunIIFall18DRPremix/DYToEE_M-50_NNPDF31_TuneCP5_13TeV-powheg-pythia8/AODSIM/102X_upgrade2018_realistic_v11-v1/100001/BE7818BB-D858-054C-91A6-9EFE062FF25B.root'
p566
aS'/store/mc/RunIIFall18DRPremix/DYToEE_M-50_NNPDF31_TuneCP5_13TeV-powheg-pythia8/AODSIM/102X_upgrade2018_realistic_v11-v1/100001/71D54400-844C-FE45-B819-48A3AC0F8F8F.root'
p567
aS'/store/mc/RunIIFall18DRPremix/DYToEE_M-50_NNPDF31_TuneCP5_13TeV-powheg-pythia8/AODSIM/102X_upgrade2018_realistic_v11-v1/100001/907081C3-5E68-4440-A24B-B453E2C9958C.root'
p568
aS'/store/mc/RunIIFall18DRPremix/DYToEE_M-50_NNPDF31_TuneCP5_13TeV-powheg-pythia8/AODSIM/102X_upgrade2018_realistic_v11-v1/100001/5C1304AD-2CF0-9F46-AF1B-11B8A7E4830B.root'
p569
aS'/store/mc/RunIIFall18DRPremix/DYToEE_M-50_NNPDF31_TuneCP5_13TeV-powheg-pythia8/AODSIM/102X_upgrade2018_realistic_v11-v1/100001/434DEA3A-E0AA-BA41-9329-100636204FDC.root'
p570
aS'/store/mc/RunIIFall18DRPremix/DYToEE_M-50_NNPDF31_TuneCP5_13TeV-powheg-pythia8/AODSIM/102X_upgrade2018_realistic_v11-v1/100000/0965D78E-0EB3-3049-9F7B-2092F5D90D39.root'
p571
aS'/store/mc/RunIIFall18DRPremix/DYToEE_M-50_NNPDF31_TuneCP5_13TeV-powheg-pythia8/AODSIM/102X_upgrade2018_realistic_v11-v1/100000/E8E21DF5-D721-1E41-8633-7968AF3E7068.root'
p572
aS'/store/mc/RunIIFall18DRPremix/DYToEE_M-50_NNPDF31_TuneCP5_13TeV-powheg-pythia8/AODSIM/102X_upgrade2018_realistic_v11-v1/100000/3B83BC47-0D5A-684C-A427-EDFCD5176E10.root'
p573
aS'/store/mc/RunIIFall18DRPremix/DYToEE_M-50_NNPDF31_TuneCP5_13TeV-powheg-pythia8/AODSIM/102X_upgrade2018_realistic_v11-v1/100000/B181606B-7178-5E4C-A6BA-3D8B3E5E774C.root'
p574
aS'/store/mc/RunIIFall18DRPremix/DYToEE_M-50_NNPDF31_TuneCP5_13TeV-powheg-pythia8/AODSIM/102X_upgrade2018_realistic_v11-v1/100000/C5F1EEA3-30C7-6B42-8327-772BDEBA6A37.root'
p575
aS'/store/mc/RunIIFall18DRPremix/DYToEE_M-50_NNPDF31_TuneCP5_13TeV-powheg-pythia8/AODSIM/102X_upgrade2018_realistic_v11-v1/100000/B1822494-1827-7A49-B9FE-3DB65A6456BD.root'
p576
aS'/store/mc/RunIIFall18DRPremix/DYToEE_M-50_NNPDF31_TuneCP5_13TeV-powheg-pythia8/AODSIM/102X_upgrade2018_realistic_v11-v1/100000/A3D7F83A-46E7-784B-B878-E67A4E604B27.root'
p577
aS'/store/mc/RunIIFall18DRPremix/DYToEE_M-50_NNPDF31_TuneCP5_13TeV-powheg-pythia8/AODSIM/102X_upgrade2018_realistic_v11-v1/100000/8E552BC6-0BE3-2B4F-9614-60F0A1E209CE.root'
p578
aS'/store/mc/RunIIFall18DRPremix/DYToEE_M-50_NNPDF31_TuneCP5_13TeV-powheg-pythia8/AODSIM/102X_upgrade2018_realistic_v11-v1/100000/E0705E7B-FF93-7F43-B3F8-4205A145EDEE.root'
p579
aS'/store/mc/RunIIFall18DRPremix/DYToEE_M-50_NNPDF31_TuneCP5_13TeV-powheg-pythia8/AODSIM/102X_upgrade2018_realistic_v11-v1/100000/2B3A2503-423A-0C47-88DD-29C937FC85D9.root'
p580
aS'/store/mc/RunIIFall18DRPremix/DYToEE_M-50_NNPDF31_TuneCP5_13TeV-powheg-pythia8/AODSIM/102X_upgrade2018_realistic_v11-v1/100000/45357BC3-9D0F-C84D-B477-2DFA842E50BF.root'
p581
aS'/store/mc/RunIIFall18DRPremix/DYToEE_M-50_NNPDF31_TuneCP5_13TeV-powheg-pythia8/AODSIM/102X_upgrade2018_realistic_v11-v1/100000/5A961CC3-D090-6F41-9DD1-AE0B1F0EB8D9.root'
p582
aS'/store/mc/RunIIFall18DRPremix/DYToEE_M-50_NNPDF31_TuneCP5_13TeV-powheg-pythia8/AODSIM/102X_upgrade2018_realistic_v11-v1/100000/FB3F02BE-E62A-8F4E-B61B-6E97C4DCC737.root'
p583
aS'/store/mc/RunIIFall18DRPremix/DYToEE_M-50_NNPDF31_TuneCP5_13TeV-powheg-pythia8/AODSIM/102X_upgrade2018_realistic_v11-v1/100000/AE23B348-69AA-084D-95E5-A860D261505D.root'
p584
aS'/store/mc/RunIIFall18DRPremix/DYToEE_M-50_NNPDF31_TuneCP5_13TeV-powheg-pythia8/AODSIM/102X_upgrade2018_realistic_v11-v1/100000/048840F2-B704-A545-939E-952BF2472B6A.root'
p585
aS'/store/mc/RunIIFall18DRPremix/DYToEE_M-50_NNPDF31_TuneCP5_13TeV-powheg-pythia8/AODSIM/102X_upgrade2018_realistic_v11-v1/100000/7369BD67-A7F4-D141-B019-A5A4A4DDA192.root'
p586
aS'/store/mc/RunIIFall18DRPremix/DYToEE_M-50_NNPDF31_TuneCP5_13TeV-powheg-pythia8/AODSIM/102X_upgrade2018_realistic_v11-v1/100000/0585650F-E1F2-F747-9C64-1ABC616E0833.root'
p587
aS'/store/mc/RunIIFall18DRPremix/DYToEE_M-50_NNPDF31_TuneCP5_13TeV-powheg-pythia8/AODSIM/102X_upgrade2018_realistic_v11-v1/100000/1CDA1C40-4FA5-7C41-AE4F-1914A184A2CF.root'
p588
aS'/store/mc/RunIIFall18DRPremix/DYToEE_M-50_NNPDF31_TuneCP5_13TeV-powheg-pythia8/AODSIM/102X_upgrade2018_realistic_v11-v1/100000/8995D206-09BE-074B-8D03-837CE1986BAA.root'
p589
aS'/store/mc/RunIIFall18DRPremix/DYToEE_M-50_NNPDF31_TuneCP5_13TeV-powheg-pythia8/AODSIM/102X_upgrade2018_realistic_v11-v1/100000/E6F22248-ACEE-1E41-9064-5149A4D5ECB2.root'
p590
aS'/store/mc/RunIIFall18DRPremix/DYToEE_M-50_NNPDF31_TuneCP5_13TeV-powheg-pythia8/AODSIM/102X_upgrade2018_realistic_v11-v1/100000/24306380-FCBA-B746-B4CD-F448364E3D71.root'
p591
aS'/store/mc/RunIIFall18DRPremix/DYToEE_M-50_NNPDF31_TuneCP5_13TeV-powheg-pythia8/AODSIM/102X_upgrade2018_realistic_v11-v1/100000/D9831D20-A0A1-6F49-97E1-4DCDB856A1B6.root'
p592
aS'/store/mc/RunIIFall18DRPremix/DYToEE_M-50_NNPDF31_TuneCP5_13TeV-powheg-pythia8/AODSIM/102X_upgrade2018_realistic_v11-v1/100000/6FE1910B-364C-7842-90DE-453AA77CFFE7.root'
p593
aS'/store/mc/RunIIFall18DRPremix/DYToEE_M-50_NNPDF31_TuneCP5_13TeV-powheg-pythia8/AODSIM/102X_upgrade2018_realistic_v11-v1/100000/CC9EFF63-287E-2840-BE3D-5AE7F9C8A9DA.root'
p594
aS'/store/mc/RunIIFall18DRPremix/DYToEE_M-50_NNPDF31_TuneCP5_13TeV-powheg-pythia8/AODSIM/102X_upgrade2018_realistic_v11-v1/100000/4338C1D4-4B2E-5C48-927E-5BC654779614.root'
p595
aS'/store/mc/RunIIFall18DRPremix/DYToEE_M-50_NNPDF31_TuneCP5_13TeV-powheg-pythia8/AODSIM/102X_upgrade2018_realistic_v11-v1/100000/812EF128-CDE2-144C-98FB-618C508FF25D.root'
p596
aS'/store/mc/RunIIFall18DRPremix/DYToEE_M-50_NNPDF31_TuneCP5_13TeV-powheg-pythia8/AODSIM/102X_upgrade2018_realistic_v11-v1/100000/54518B41-5825-9148-8253-6F186E074DBA.root'
p597
aS'/store/mc/RunIIFall18DRPremix/DYToEE_M-50_NNPDF31_TuneCP5_13TeV-powheg-pythia8/AODSIM/102X_upgrade2018_realistic_v11-v1/100000/78DE49C0-385A-B141-9745-51C9402B5556.root'
p598
aS'/store/mc/RunIIFall18DRPremix/DYToEE_M-50_NNPDF31_TuneCP5_13TeV-powheg-pythia8/AODSIM/102X_upgrade2018_realistic_v11-v1/100000/8E29ED0D-904C-FB42-BC89-140055594AC6.root'
p599
aS'/store/mc/RunIIFall18DRPremix/DYToEE_M-50_NNPDF31_TuneCP5_13TeV-powheg-pythia8/AODSIM/102X_upgrade2018_realistic_v11-v1/100000/73A0FCBD-347B-4C48-9202-CFF18F602AA9.root'
p600
aS'/store/mc/RunIIFall18DRPremix/DYToEE_M-50_NNPDF31_TuneCP5_13TeV-powheg-pythia8/AODSIM/102X_upgrade2018_realistic_v11-v1/100000/932D5F02-8FC3-F346-BB13-406394568A7E.root'
p601
aS'/store/mc/RunIIFall18DRPremix/DYToEE_M-50_NNPDF31_TuneCP5_13TeV-powheg-pythia8/AODSIM/102X_upgrade2018_realistic_v11-v1/100000/B3F95A5C-2097-1D40-8EEF-D98656F6A099.root'
p602
aS'/store/mc/RunIIFall18DRPremix/DYToEE_M-50_NNPDF31_TuneCP5_13TeV-powheg-pythia8/AODSIM/102X_upgrade2018_realistic_v11-v1/100000/B97FEAFC-B1D5-F24E-96C6-AD9ACF6F4F9B.root'
p603
aS'/store/mc/RunIIFall18DRPremix/DYToEE_M-50_NNPDF31_TuneCP5_13TeV-powheg-pythia8/AODSIM/102X_upgrade2018_realistic_v11-v1/100000/F91A4AED-0448-A84C-81A7-3ABBFED26917.root'
p604
aS'/store/mc/RunIIFall18DRPremix/DYToEE_M-50_NNPDF31_TuneCP5_13TeV-powheg-pythia8/AODSIM/102X_upgrade2018_realistic_v11-v1/100000/A1577E9D-0D2E-7747-8EB4-5A497FD79F26.root'
p605
aS'/store/mc/RunIIFall18DRPremix/DYToEE_M-50_NNPDF31_TuneCP5_13TeV-powheg-pythia8/AODSIM/102X_upgrade2018_realistic_v11-v1/100000/2DA338D5-3AE0-E04C-97A6-9BD0A1461168.root'
p606
aS'/store/mc/RunIIFall18DRPremix/DYToEE_M-50_NNPDF31_TuneCP5_13TeV-powheg-pythia8/AODSIM/102X_upgrade2018_realistic_v11-v1/100000/2AE0B3A6-92E6-0043-9173-A81E8D031D24.root'
p607
aS'/store/mc/RunIIFall18DRPremix/DYToEE_M-50_NNPDF31_TuneCP5_13TeV-powheg-pythia8/AODSIM/102X_upgrade2018_realistic_v11-v1/100000/62C70B4F-2589-C54F-BD17-ED1425C1E825.root'
p608
aS'/store/mc/RunIIFall18DRPremix/DYToEE_M-50_NNPDF31_TuneCP5_13TeV-powheg-pythia8/AODSIM/102X_upgrade2018_realistic_v11-v1/100000/5F87B847-5328-EB49-861F-F02801B713DE.root'
p609
aS'/store/mc/RunIIFall18DRPremix/DYToEE_M-50_NNPDF31_TuneCP5_13TeV-powheg-pythia8/AODSIM/102X_upgrade2018_realistic_v11-v1/100000/8E4605D5-5C37-7E4C-8459-72DBDD5D55AD.root'
p610
aS'/store/mc/RunIIFall18DRPremix/DYToEE_M-50_NNPDF31_TuneCP5_13TeV-powheg-pythia8/AODSIM/102X_upgrade2018_realistic_v11-v1/100000/74053F9E-F2EA-3F4F-8466-71E19785FFBB.root'
p611
aS'/store/mc/RunIIFall18DRPremix/DYToEE_M-50_NNPDF31_TuneCP5_13TeV-powheg-pythia8/AODSIM/102X_upgrade2018_realistic_v11-v1/100000/C00D6302-2FD6-3740-AB78-C6D24EAE754C.root'
p612
aS'/store/mc/RunIIFall18DRPremix/DYToEE_M-50_NNPDF31_TuneCP5_13TeV-powheg-pythia8/AODSIM/102X_upgrade2018_realistic_v11-v1/100000/458A5CF7-13D8-4141-8005-6DFF995F7A30.root'
p613
aS'/store/mc/RunIIFall18DRPremix/DYToEE_M-50_NNPDF31_TuneCP5_13TeV-powheg-pythia8/AODSIM/102X_upgrade2018_realistic_v11-v1/100000/65E6C88D-E67C-DF43-B065-0BF217BF71A7.root'
p614
aS'/store/mc/RunIIFall18DRPremix/DYToEE_M-50_NNPDF31_TuneCP5_13TeV-powheg-pythia8/AODSIM/102X_upgrade2018_realistic_v11-v1/100000/4289F009-BC01-1B43-AE72-7E16D401ECEE.root'
p615
aS'/store/mc/RunIIFall18DRPremix/DYToEE_M-50_NNPDF31_TuneCP5_13TeV-powheg-pythia8/AODSIM/102X_upgrade2018_realistic_v11-v1/100000/E7DAD8E3-1F97-BA41-8F10-A39320FB67FD.root'
p616
aS'/store/mc/RunIIFall18DRPremix/DYToEE_M-50_NNPDF31_TuneCP5_13TeV-powheg-pythia8/AODSIM/102X_upgrade2018_realistic_v11-v1/100000/71F84453-6C29-CE44-AFF3-7E9E2B3492C2.root'
p617
aS'/store/mc/RunIIFall18DRPremix/DYToEE_M-50_NNPDF31_TuneCP5_13TeV-powheg-pythia8/AODSIM/102X_upgrade2018_realistic_v11-v1/100000/D1317473-894F-714B-A752-68B53C7C8061.root'
p618
aS'/store/mc/RunIIFall18DRPremix/DYToEE_M-50_NNPDF31_TuneCP5_13TeV-powheg-pythia8/AODSIM/102X_upgrade2018_realistic_v11-v1/100000/AB478EB9-FDE7-E342-9091-2D98B80A4F09.root'
p619
aS'/store/mc/RunIIFall18DRPremix/DYToEE_M-50_NNPDF31_TuneCP5_13TeV-powheg-pythia8/AODSIM/102X_upgrade2018_realistic_v11-v1/100000/5751F713-0AAE-9948-B82D-8181EB7937C5.root'
p620
aS'/store/mc/RunIIFall18DRPremix/DYToEE_M-50_NNPDF31_TuneCP5_13TeV-powheg-pythia8/AODSIM/102X_upgrade2018_realistic_v11-v1/100000/6EF38934-6ACC-2546-9F78-DA7A29E83055.root'
p621
aS'/store/mc/RunIIFall18DRPremix/DYToEE_M-50_NNPDF31_TuneCP5_13TeV-powheg-pythia8/AODSIM/102X_upgrade2018_realistic_v11-v1/100000/3A7E3425-F389-CB47-8D8E-97B631BFE911.root'
p622
aS'/store/mc/RunIIFall18DRPremix/DYToEE_M-50_NNPDF31_TuneCP5_13TeV-powheg-pythia8/AODSIM/102X_upgrade2018_realistic_v11-v1/100000/78318249-5799-594C-B806-2D47C8F5B40B.root'
p623
aS'/store/mc/RunIIFall18DRPremix/DYToEE_M-50_NNPDF31_TuneCP5_13TeV-powheg-pythia8/AODSIM/102X_upgrade2018_realistic_v11-v1/100000/D820D1B1-7470-B949-87A2-03B16C9D139E.root'
p624
aS'/store/mc/RunIIFall18DRPremix/DYToEE_M-50_NNPDF31_TuneCP5_13TeV-powheg-pythia8/AODSIM/102X_upgrade2018_realistic_v11-v1/100000/607A1675-AEF2-F04B-9094-CB62217446AC.root'
p625
aS'/store/mc/RunIIFall18DRPremix/DYToEE_M-50_NNPDF31_TuneCP5_13TeV-powheg-pythia8/AODSIM/102X_upgrade2018_realistic_v11-v1/100000/F7C62FF3-5A28-AB43-B0B8-83D9D0C8AACF.root'
p626
aS'/store/mc/RunIIFall18DRPremix/DYToEE_M-50_NNPDF31_TuneCP5_13TeV-powheg-pythia8/AODSIM/102X_upgrade2018_realistic_v11-v1/100000/C282BA22-47E5-9F41-8732-15D75E1B7607.root'
p627
aS'/store/mc/RunIIFall18DRPremix/DYToEE_M-50_NNPDF31_TuneCP5_13TeV-powheg-pythia8/AODSIM/102X_upgrade2018_realistic_v11-v1/100000/0695645B-77AC-9849-B32D-886E0BA9E36B.root'
p628
aS'/store/mc/RunIIFall18DRPremix/DYToEE_M-50_NNPDF31_TuneCP5_13TeV-powheg-pythia8/AODSIM/102X_upgrade2018_realistic_v11-v1/100000/1A3C080D-C415-B94B-BC7B-ACCD397624C5.root'
p629
aS'/store/mc/RunIIFall18DRPremix/DYToEE_M-50_NNPDF31_TuneCP5_13TeV-powheg-pythia8/AODSIM/102X_upgrade2018_realistic_v11-v1/100000/11505366-8D76-E149-9E92-EEFB2557EF99.root'
p630
aS'/store/mc/RunIIFall18DRPremix/DYToEE_M-50_NNPDF31_TuneCP5_13TeV-powheg-pythia8/AODSIM/102X_upgrade2018_realistic_v11-v1/100000/597F7D45-17D0-C148-B5B8-B7F90F77285C.root'
p631
aS'/store/mc/RunIIFall18DRPremix/DYToEE_M-50_NNPDF31_TuneCP5_13TeV-powheg-pythia8/AODSIM/102X_upgrade2018_realistic_v11-v1/100000/2F2AA849-110A-594D-B07F-804807927167.root'
p632
aS'/store/mc/RunIIFall18DRPremix/DYToEE_M-50_NNPDF31_TuneCP5_13TeV-powheg-pythia8/AODSIM/102X_upgrade2018_realistic_v11-v1/100000/7A6374D7-D52F-7A49-8A29-EC864C1E4C13.root'
p633
aS'/store/mc/RunIIFall18DRPremix/DYToEE_M-50_NNPDF31_TuneCP5_13TeV-powheg-pythia8/AODSIM/102X_upgrade2018_realistic_v11-v1/100000/4FA2122E-CA20-6942-9092-121330F16D40.root'
p634
aS'/store/mc/RunIIFall18DRPremix/DYToEE_M-50_NNPDF31_TuneCP5_13TeV-powheg-pythia8/AODSIM/102X_upgrade2018_realistic_v11-v1/100000/6C3BDB91-D465-6341-B014-A9FB685C3E9F.root'
p635
aS'/store/mc/RunIIFall18DRPremix/DYToEE_M-50_NNPDF31_TuneCP5_13TeV-powheg-pythia8/AODSIM/102X_upgrade2018_realistic_v11-v1/100000/EEDBA992-F4B6-2649-B5ED-5B1DEFE38697.root'
p636
aS'/store/mc/RunIIFall18DRPremix/DYToEE_M-50_NNPDF31_TuneCP5_13TeV-powheg-pythia8/AODSIM/102X_upgrade2018_realistic_v11-v1/100000/135B84FF-D143-E24A-8490-B4B1B138B27E.root'
p637
aS'/store/mc/RunIIFall18DRPremix/DYToEE_M-50_NNPDF31_TuneCP5_13TeV-powheg-pythia8/AODSIM/102X_upgrade2018_realistic_v11-v1/100000/7727BD98-2F57-8E4E-A6B8-4212945A5386.root'
p638
aS'/store/mc/RunIIFall18DRPremix/DYToEE_M-50_NNPDF31_TuneCP5_13TeV-powheg-pythia8/AODSIM/102X_upgrade2018_realistic_v11-v1/100000/877E5296-29F4-954A-ABF0-F2B23545149B.root'
p639
aS'/store/mc/RunIIFall18DRPremix/DYToEE_M-50_NNPDF31_TuneCP5_13TeV-powheg-pythia8/AODSIM/102X_upgrade2018_realistic_v11-v1/100000/1A637FE3-990F-8347-8EAC-2D2687567A15.root'
p640
aS'/store/mc/RunIIFall18DRPremix/DYToEE_M-50_NNPDF31_TuneCP5_13TeV-powheg-pythia8/AODSIM/102X_upgrade2018_realistic_v11-v1/100000/3C701345-439B-F24A-8529-A2ED26F5F733.root'
p641
aS'/store/mc/RunIIFall18DRPremix/DYToEE_M-50_NNPDF31_TuneCP5_13TeV-powheg-pythia8/AODSIM/102X_upgrade2018_realistic_v11-v1/100000/5376D8D5-E1F5-6545-899D-3361DDC247A5.root'
p642
aS'/store/mc/RunIIFall18DRPremix/DYToEE_M-50_NNPDF31_TuneCP5_13TeV-powheg-pythia8/AODSIM/102X_upgrade2018_realistic_v11-v1/100000/66B9C226-B7FC-1E4A-859F-511D67DF757D.root'
p643
aS'/store/mc/RunIIFall18DRPremix/DYToEE_M-50_NNPDF31_TuneCP5_13TeV-powheg-pythia8/AODSIM/102X_upgrade2018_realistic_v11-v1/100000/D82D09F0-0D73-FD4A-AC48-B81CBFA8F527.root'
p644
aS'/store/mc/RunIIFall18DRPremix/DYToEE_M-50_NNPDF31_TuneCP5_13TeV-powheg-pythia8/AODSIM/102X_upgrade2018_realistic_v11-v1/100000/80F3A7FE-B201-914C-BDAE-B83718F5527F.root'
p645
aS'/store/mc/RunIIFall18DRPremix/DYToEE_M-50_NNPDF31_TuneCP5_13TeV-powheg-pythia8/AODSIM/102X_upgrade2018_realistic_v11-v1/100000/CED0BA7B-710A-C446-97D0-B00E2CFBD7B8.root'
p646
aS'/store/mc/RunIIFall18DRPremix/DYToEE_M-50_NNPDF31_TuneCP5_13TeV-powheg-pythia8/AODSIM/102X_upgrade2018_realistic_v11-v1/100001/C5D63569-52C9-C242-881F-F23E20BDB0A0.root'
p647
aS'/store/mc/RunIIFall18DRPremix/DYToEE_M-50_NNPDF31_TuneCP5_13TeV-powheg-pythia8/AODSIM/102X_upgrade2018_realistic_v11-v1/100000/62FBE36A-45AC-7C42-B812-4A9E90D05483.root'
p648
aS'/store/mc/RunIIFall18DRPremix/DYToEE_M-50_NNPDF31_TuneCP5_13TeV-powheg-pythia8/AODSIM/102X_upgrade2018_realistic_v11-v1/100001/00662CCE-AA76-0540-9C05-A834EF992431.root'
p649
aS'/store/mc/RunIIFall18DRPremix/DYToEE_M-50_NNPDF31_TuneCP5_13TeV-powheg-pythia8/AODSIM/102X_upgrade2018_realistic_v11-v1/100001/B93E64EC-1171-0344-BABD-447B9D3D81E1.root'
p650
aS'/store/mc/RunIIFall18DRPremix/DYToEE_M-50_NNPDF31_TuneCP5_13TeV-powheg-pythia8/AODSIM/102X_upgrade2018_realistic_v11-v1/100001/0F3B8BFD-008C-E143-A9F8-6C56BF14539E.root'
p651
aS'/store/mc/RunIIFall18DRPremix/DYToEE_M-50_NNPDF31_TuneCP5_13TeV-powheg-pythia8/AODSIM/102X_upgrade2018_realistic_v11-v1/100000/51A85F57-F310-634C-806B-A1404EC188FC.root'
p652
aS'/store/mc/RunIIFall18DRPremix/DYToEE_M-50_NNPDF31_TuneCP5_13TeV-powheg-pythia8/AODSIM/102X_upgrade2018_realistic_v11-v1/100000/F27B4C8C-0A0A-E749-8E98-D558E207DF72.root'
p653
aS'/store/mc/RunIIFall18DRPremix/DYToEE_M-50_NNPDF31_TuneCP5_13TeV-powheg-pythia8/AODSIM/102X_upgrade2018_realistic_v11-v1/100000/3105346B-1C6D-2149-A542-4ECE9902868B.root'
p654
aS'/store/mc/RunIIFall18DRPremix/DYToEE_M-50_NNPDF31_TuneCP5_13TeV-powheg-pythia8/AODSIM/102X_upgrade2018_realistic_v11-v1/100000/20411F72-F4AA-1042-8DE1-DE1591E1FA4C.root'
p655
aS'/store/mc/RunIIFall18DRPremix/DYToEE_M-50_NNPDF31_TuneCP5_13TeV-powheg-pythia8/AODSIM/102X_upgrade2018_realistic_v11-v1/100000/B9CC833E-300C-6240-B563-235905DC775E.root'
p656
aS'/store/mc/RunIIFall18DRPremix/DYToEE_M-50_NNPDF31_TuneCP5_13TeV-powheg-pythia8/AODSIM/102X_upgrade2018_realistic_v11-v1/100000/F0B7503F-1210-5C48-88ED-96DFE901773E.root'
p657
aS'/store/mc/RunIIFall18DRPremix/DYToEE_M-50_NNPDF31_TuneCP5_13TeV-powheg-pythia8/AODSIM/102X_upgrade2018_realistic_v11-v1/100000/26F6F3A1-9DBE-3741-A01D-D5D16AEA6686.root'
p658
aS'/store/mc/RunIIFall18DRPremix/DYToEE_M-50_NNPDF31_TuneCP5_13TeV-powheg-pythia8/AODSIM/102X_upgrade2018_realistic_v11-v1/100000/F65E3FEC-0FAD-2244-AE8A-8ECB0382746B.root'
p659
aS'/store/mc/RunIIFall18DRPremix/DYToEE_M-50_NNPDF31_TuneCP5_13TeV-powheg-pythia8/AODSIM/102X_upgrade2018_realistic_v11-v1/100000/19B403F3-63E3-B14C-A074-47900071E628.root'
p660
aS'/store/mc/RunIIFall18DRPremix/DYToEE_M-50_NNPDF31_TuneCP5_13TeV-powheg-pythia8/AODSIM/102X_upgrade2018_realistic_v11-v1/100000/B9A20784-CE41-F347-8D17-C95612F1E891.root'
p661
aS'/store/mc/RunIIFall18DRPremix/DYToEE_M-50_NNPDF31_TuneCP5_13TeV-powheg-pythia8/AODSIM/102X_upgrade2018_realistic_v11-v1/100000/E7408361-5951-6446-A140-46E288B72CD1.root'
p662
aS'/store/mc/RunIIFall18DRPremix/DYToEE_M-50_NNPDF31_TuneCP5_13TeV-powheg-pythia8/AODSIM/102X_upgrade2018_realistic_v11-v1/100000/3D938DFA-6B26-7849-8E78-6BF000AD3DE5.root'
p663
aS'/store/mc/RunIIFall18DRPremix/DYToEE_M-50_NNPDF31_TuneCP5_13TeV-powheg-pythia8/AODSIM/102X_upgrade2018_realistic_v11-v1/100000/2033C745-EA6D-8B4E-A2D5-CF45109FA6CA.root'
p664
aS'/store/mc/RunIIFall18DRPremix/DYToEE_M-50_NNPDF31_TuneCP5_13TeV-powheg-pythia8/AODSIM/102X_upgrade2018_realistic_v11-v1/100000/A5AF4827-848F-A149-BB87-3633EAD01E19.root'
p665
aS'/store/mc/RunIIFall18DRPremix/DYToEE_M-50_NNPDF31_TuneCP5_13TeV-powheg-pythia8/AODSIM/102X_upgrade2018_realistic_v11-v1/100000/D942D112-D7B4-514A-B176-0C322D835A94.root'
p666
aS'/store/mc/RunIIFall18DRPremix/DYToEE_M-50_NNPDF31_TuneCP5_13TeV-powheg-pythia8/AODSIM/102X_upgrade2018_realistic_v11-v1/100000/1A3B5720-4D19-0142-ADBC-A9D8F6AD3774.root'
p667
aS'/store/mc/RunIIFall18DRPremix/DYToEE_M-50_NNPDF31_TuneCP5_13TeV-powheg-pythia8/AODSIM/102X_upgrade2018_realistic_v11-v1/100000/F546C1BD-8C79-7B4A-B7CB-BB92330E4B7D.root'
p668
aS'/store/mc/RunIIFall18DRPremix/DYToEE_M-50_NNPDF31_TuneCP5_13TeV-powheg-pythia8/AODSIM/102X_upgrade2018_realistic_v11-v1/100000/14A9F4B5-198E-2646-BFC0-D289DAEDEE9C.root'
p669
aS'/store/mc/RunIIFall18DRPremix/DYToEE_M-50_NNPDF31_TuneCP5_13TeV-powheg-pythia8/AODSIM/102X_upgrade2018_realistic_v11-v1/100000/3D53535A-75C9-7945-801B-84C9C2B0CA16.root'
p670
aS'/store/mc/RunIIFall18DRPremix/DYToEE_M-50_NNPDF31_TuneCP5_13TeV-powheg-pythia8/AODSIM/102X_upgrade2018_realistic_v11-v1/100000/00F3CADA-32D4-5645-9D07-6D86105E2F80.root'
p671
aS'/store/mc/RunIIFall18DRPremix/DYToEE_M-50_NNPDF31_TuneCP5_13TeV-powheg-pythia8/AODSIM/102X_upgrade2018_realistic_v11-v1/100000/FB8021C2-BB19-9F4B-B937-D08E3D6BF643.root'
p672
aS'/store/mc/RunIIFall18DRPremix/DYToEE_M-50_NNPDF31_TuneCP5_13TeV-powheg-pythia8/AODSIM/102X_upgrade2018_realistic_v11-v1/100000/1D895EFB-D9C9-FE47-A62C-8BECE30618CE.root'
p673
aS'/store/mc/RunIIFall18DRPremix/DYToEE_M-50_NNPDF31_TuneCP5_13TeV-powheg-pythia8/AODSIM/102X_upgrade2018_realistic_v11-v1/100000/D115ED8B-7EF7-BB4B-8F3D-ED727AF55747.root'
p674
aS'/store/mc/RunIIFall18DRPremix/DYToEE_M-50_NNPDF31_TuneCP5_13TeV-powheg-pythia8/AODSIM/102X_upgrade2018_realistic_v11-v1/100000/AC5CE5A7-3C48-D849-812C-E7DC444BF925.root'
p675
aS'/store/mc/RunIIFall18DRPremix/DYToEE_M-50_NNPDF31_TuneCP5_13TeV-powheg-pythia8/AODSIM/102X_upgrade2018_realistic_v11-v1/100000/21C3CC4C-DF6B-CB44-B487-06EE103D607E.root'
p676
aS'/store/mc/RunIIFall18DRPremix/DYToEE_M-50_NNPDF31_TuneCP5_13TeV-powheg-pythia8/AODSIM/102X_upgrade2018_realistic_v11-v1/100000/ADC46B69-74BA-DE44-9E2B-21CA8804CDBC.root'
p677
aS'/store/mc/RunIIFall18DRPremix/DYToEE_M-50_NNPDF31_TuneCP5_13TeV-powheg-pythia8/AODSIM/102X_upgrade2018_realistic_v11-v1/100000/C8019C38-DB6E-BB4A-B131-BAFA34C45318.root'
p678
aS'/store/mc/RunIIFall18DRPremix/DYToEE_M-50_NNPDF31_TuneCP5_13TeV-powheg-pythia8/AODSIM/102X_upgrade2018_realistic_v11-v1/100000/3075C0A9-8397-B441-845D-9FEDDFA0BF9D.root'
p679
aS'/store/mc/RunIIFall18DRPremix/DYToEE_M-50_NNPDF31_TuneCP5_13TeV-powheg-pythia8/AODSIM/102X_upgrade2018_realistic_v11-v1/100000/2E1C8086-0989-5047-845D-84C0C1B9B1F8.root'
p680
aS'/store/mc/RunIIFall18DRPremix/DYToEE_M-50_NNPDF31_TuneCP5_13TeV-powheg-pythia8/AODSIM/102X_upgrade2018_realistic_v11-v1/100000/784DF9C2-6BA7-8D48-A051-8DBE6512EA51.root'
p681
aS'/store/mc/RunIIFall18DRPremix/DYToEE_M-50_NNPDF31_TuneCP5_13TeV-powheg-pythia8/AODSIM/102X_upgrade2018_realistic_v11-v1/100000/6726F2DC-5A46-2543-9337-A74CAFF196EC.root'
p682
aS'/store/mc/RunIIFall18DRPremix/DYToEE_M-50_NNPDF31_TuneCP5_13TeV-powheg-pythia8/AODSIM/102X_upgrade2018_realistic_v11-v1/100000/5EED6EDC-431E-1640-851D-A5B8B135CD8F.root'
p683
aS'/store/mc/RunIIFall18DRPremix/DYToEE_M-50_NNPDF31_TuneCP5_13TeV-powheg-pythia8/AODSIM/102X_upgrade2018_realistic_v11-v1/100000/DB548F0A-4569-2B45-8375-CB030045F766.root'
p684
aS'/store/mc/RunIIFall18DRPremix/DYToEE_M-50_NNPDF31_TuneCP5_13TeV-powheg-pythia8/AODSIM/102X_upgrade2018_realistic_v11-v1/100000/60AE511F-18DF-CB44-888A-741F5A7FB9D9.root'
p685
aS'/store/mc/RunIIFall18DRPremix/DYToEE_M-50_NNPDF31_TuneCP5_13TeV-powheg-pythia8/AODSIM/102X_upgrade2018_realistic_v11-v1/100000/A1C778CC-86FA-ED47-9C41-8FF9733DF572.root'
p686
aS'/store/mc/RunIIFall18DRPremix/DYToEE_M-50_NNPDF31_TuneCP5_13TeV-powheg-pythia8/AODSIM/102X_upgrade2018_realistic_v11-v1/100000/7F62F54C-383A-3B43-8D6D-5F837F24E194.root'
p687
aS'/store/mc/RunIIFall18DRPremix/DYToEE_M-50_NNPDF31_TuneCP5_13TeV-powheg-pythia8/AODSIM/102X_upgrade2018_realistic_v11-v1/100000/27DB6424-E3E1-224D-A8EB-82D485A806B9.root'
p688
aS'/store/mc/RunIIFall18DRPremix/DYToEE_M-50_NNPDF31_TuneCP5_13TeV-powheg-pythia8/AODSIM/102X_upgrade2018_realistic_v11-v1/100000/5146BE3A-8C0A-0043-80E5-908744641329.root'
p689
aS'/store/mc/RunIIFall18DRPremix/DYToEE_M-50_NNPDF31_TuneCP5_13TeV-powheg-pythia8/AODSIM/102X_upgrade2018_realistic_v11-v1/100000/6CB96CAF-5183-874C-8C1A-B2D9AB583CF6.root'
p690
aS'/store/mc/RunIIFall18DRPremix/DYToEE_M-50_NNPDF31_TuneCP5_13TeV-powheg-pythia8/AODSIM/102X_upgrade2018_realistic_v11-v1/100000/00F8CA9D-73C2-A042-9792-DD8B56B139D2.root'
p691
aS'/store/mc/RunIIFall18DRPremix/DYToEE_M-50_NNPDF31_TuneCP5_13TeV-powheg-pythia8/AODSIM/102X_upgrade2018_realistic_v11-v1/100000/29464EA8-A130-5C45-B323-AE49BBB52A3B.root'
p692
aS'/store/mc/RunIIFall18DRPremix/DYToEE_M-50_NNPDF31_TuneCP5_13TeV-powheg-pythia8/AODSIM/102X_upgrade2018_realistic_v11-v1/100000/FCF7F17B-55C2-054B-8264-79B55C9C482F.root'
p693
aS'/store/mc/RunIIFall18DRPremix/DYToEE_M-50_NNPDF31_TuneCP5_13TeV-powheg-pythia8/AODSIM/102X_upgrade2018_realistic_v11-v1/100000/E99E3CE7-1274-0349-A7CE-EE42D335C303.root'
p694
aS'/store/mc/RunIIFall18DRPremix/DYToEE_M-50_NNPDF31_TuneCP5_13TeV-powheg-pythia8/AODSIM/102X_upgrade2018_realistic_v11-v1/100000/F0FA5409-4880-8A40-86F4-EF75DC1C41AA.root'
p695
aS'/store/mc/RunIIFall18DRPremix/DYToEE_M-50_NNPDF31_TuneCP5_13TeV-powheg-pythia8/AODSIM/102X_upgrade2018_realistic_v11-v1/100000/4A314002-A42D-E24D-8FAF-68813CD8D3A9.root'
p696
aS'/store/mc/RunIIFall18DRPremix/DYToEE_M-50_NNPDF31_TuneCP5_13TeV-powheg-pythia8/AODSIM/102X_upgrade2018_realistic_v11-v1/100000/3EB2C8B9-3CBA-6741-B773-6553E0E82047.root'
p697
aS'/store/mc/RunIIFall18DRPremix/DYToEE_M-50_NNPDF31_TuneCP5_13TeV-powheg-pythia8/AODSIM/102X_upgrade2018_realistic_v11-v1/100000/77AC9932-511C-E144-8053-0E4B5EDE8833.root'
p698
aS'/store/mc/RunIIFall18DRPremix/DYToEE_M-50_NNPDF31_TuneCP5_13TeV-powheg-pythia8/AODSIM/102X_upgrade2018_realistic_v11-v1/100000/340FA5EF-5D0C-EA47-BA72-2E4AA3A3F87D.root'
p699
aS'/store/mc/RunIIFall18DRPremix/DYToEE_M-50_NNPDF31_TuneCP5_13TeV-powheg-pythia8/AODSIM/102X_upgrade2018_realistic_v11-v1/100000/DCCB8607-5EF0-8C43-8EA5-DA888834431A.root'
p700
aS'/store/mc/RunIIFall18DRPremix/DYToEE_M-50_NNPDF31_TuneCP5_13TeV-powheg-pythia8/AODSIM/102X_upgrade2018_realistic_v11-v1/100000/E90B06BC-0120-1545-9FB6-7FD25C4C0353.root'
p701
aS'/store/mc/RunIIFall18DRPremix/DYToEE_M-50_NNPDF31_TuneCP5_13TeV-powheg-pythia8/AODSIM/102X_upgrade2018_realistic_v11-v1/100000/256DCEA5-DEC8-3E47-9AB9-12F38B65C970.root'
p702
aS'/store/mc/RunIIFall18DRPremix/DYToEE_M-50_NNPDF31_TuneCP5_13TeV-powheg-pythia8/AODSIM/102X_upgrade2018_realistic_v11-v1/100000/F609922E-706F-D14E-B03B-ECAEE8A2F823.root'
p703
aS'/store/mc/RunIIFall18DRPremix/DYToEE_M-50_NNPDF31_TuneCP5_13TeV-powheg-pythia8/AODSIM/102X_upgrade2018_realistic_v11-v1/100000/998B8EBB-0A2F-2949-83A5-1063D56874BC.root'
p704
aS'/store/mc/RunIIFall18DRPremix/DYToEE_M-50_NNPDF31_TuneCP5_13TeV-powheg-pythia8/AODSIM/102X_upgrade2018_realistic_v11-v1/100000/01190A80-823E-5443-8BC8-EB6D4FFDEDE4.root'
p705
aS'/store/mc/RunIIFall18DRPremix/DYToEE_M-50_NNPDF31_TuneCP5_13TeV-powheg-pythia8/AODSIM/102X_upgrade2018_realistic_v11-v1/100000/E966B5EE-BFFE-C042-80E6-5549E20B7E83.root'
p706
aS'/store/mc/RunIIFall18DRPremix/DYToEE_M-50_NNPDF31_TuneCP5_13TeV-powheg-pythia8/AODSIM/102X_upgrade2018_realistic_v11-v1/100000/B34EAF0B-12D7-084F-AD41-8A75A0EC51EE.root'
p707
aS'/store/mc/RunIIFall18DRPremix/DYToEE_M-50_NNPDF31_TuneCP5_13TeV-powheg-pythia8/AODSIM/102X_upgrade2018_realistic_v11-v1/100000/37DA0A48-1F0C-F84B-BF04-38759D48DD27.root'
p708
aS'/store/mc/RunIIFall18DRPremix/DYToEE_M-50_NNPDF31_TuneCP5_13TeV-powheg-pythia8/AODSIM/102X_upgrade2018_realistic_v11-v1/100000/7DAE3526-402E-3940-85F0-ADC940C3AD51.root'
p709
aS'/store/mc/RunIIFall18DRPremix/DYToEE_M-50_NNPDF31_TuneCP5_13TeV-powheg-pythia8/AODSIM/102X_upgrade2018_realistic_v11-v1/100000/53B5158A-5247-7549-8E81-33AFD5823B72.root'
p710
aS'/store/mc/RunIIFall18DRPremix/DYToEE_M-50_NNPDF31_TuneCP5_13TeV-powheg-pythia8/AODSIM/102X_upgrade2018_realistic_v11-v1/100000/F70FC05C-0E8C-0D46-80B5-49953F491E55.root'
p711
aS'/store/mc/RunIIFall18DRPremix/DYToEE_M-50_NNPDF31_TuneCP5_13TeV-powheg-pythia8/AODSIM/102X_upgrade2018_realistic_v11-v1/100000/DD8A107C-2D01-3C40-BC01-FB86D1AF7102.root'
p712
aS'/store/mc/RunIIFall18DRPremix/DYToEE_M-50_NNPDF31_TuneCP5_13TeV-powheg-pythia8/AODSIM/102X_upgrade2018_realistic_v11-v1/100000/DA271917-B6DA-604D-AF4A-39DE12A6259E.root'
p713
aS'/store/mc/RunIIFall18DRPremix/DYToEE_M-50_NNPDF31_TuneCP5_13TeV-powheg-pythia8/AODSIM/102X_upgrade2018_realistic_v11-v1/100000/408EDFE0-8D05-544C-8FFC-8D1EFEBD636A.root'
p714
aS'/store/mc/RunIIFall18DRPremix/DYToEE_M-50_NNPDF31_TuneCP5_13TeV-powheg-pythia8/AODSIM/102X_upgrade2018_realistic_v11-v1/100000/3537059F-E879-144F-BAB2-B42F447828F8.root'
p715
aS'/store/mc/RunIIFall18DRPremix/DYToEE_M-50_NNPDF31_TuneCP5_13TeV-powheg-pythia8/AODSIM/102X_upgrade2018_realistic_v11-v1/100000/AFD2C206-EFFB-E04D-974E-6FAA8727A951.root'
p716
aS'/store/mc/RunIIFall18DRPremix/DYToEE_M-50_NNPDF31_TuneCP5_13TeV-powheg-pythia8/AODSIM/102X_upgrade2018_realistic_v11-v1/100000/904234E8-B4C1-9045-8FD2-7886F9FE654B.root'
p717
aS'/store/mc/RunIIFall18DRPremix/DYToEE_M-50_NNPDF31_TuneCP5_13TeV-powheg-pythia8/AODSIM/102X_upgrade2018_realistic_v11-v1/100000/0A2E6FF5-0424-DC4D-859B-4FFC0958C25C.root'
p718
aS'/store/mc/RunIIFall18DRPremix/DYToEE_M-50_NNPDF31_TuneCP5_13TeV-powheg-pythia8/AODSIM/102X_upgrade2018_realistic_v11-v1/100001/C8B98EFA-1FD5-BD47-A4ED-333C49155861.root'
p719
aS'/store/mc/RunIIFall18DRPremix/DYToEE_M-50_NNPDF31_TuneCP5_13TeV-powheg-pythia8/AODSIM/102X_upgrade2018_realistic_v11-v1/100000/66B2E171-F2E2-F940-8049-C5CC288CE5EF.root'
p720
aS'/store/mc/RunIIFall18DRPremix/DYToEE_M-50_NNPDF31_TuneCP5_13TeV-powheg-pythia8/AODSIM/102X_upgrade2018_realistic_v11-v1/100000/338915E2-F5FD-364E-876A-FDA4EF5F7E9E.root'
p721
aS'/store/mc/RunIIFall18DRPremix/DYToEE_M-50_NNPDF31_TuneCP5_13TeV-powheg-pythia8/AODSIM/102X_upgrade2018_realistic_v11-v1/100000/DCD54FAE-2EE8-C249-AC03-29931FD9E7B5.root'
p722
aS'/store/mc/RunIIFall18DRPremix/DYToEE_M-50_NNPDF31_TuneCP5_13TeV-powheg-pythia8/AODSIM/102X_upgrade2018_realistic_v11-v1/100001/46D44560-5669-1846-BE16-72C8D1048587.root'
p723
aS'/store/mc/RunIIFall18DRPremix/DYToEE_M-50_NNPDF31_TuneCP5_13TeV-powheg-pythia8/AODSIM/102X_upgrade2018_realistic_v11-v1/100000/FEEF202B-4B53-434A-AEB5-27319BA47E65.root'
p724
aS'/store/mc/RunIIFall18DRPremix/DYToEE_M-50_NNPDF31_TuneCP5_13TeV-powheg-pythia8/AODSIM/102X_upgrade2018_realistic_v11-v1/100000/B766E0DE-684E-BC4D-AFB2-5D28256D4C68.root'
p725
aS'/store/mc/RunIIFall18DRPremix/DYToEE_M-50_NNPDF31_TuneCP5_13TeV-powheg-pythia8/AODSIM/102X_upgrade2018_realistic_v11-v1/100000/BC568AF5-836A-D441-94B7-435E0F7F4E08.root'
p726
aS'/store/mc/RunIIFall18DRPremix/DYToEE_M-50_NNPDF31_TuneCP5_13TeV-powheg-pythia8/AODSIM/102X_upgrade2018_realistic_v11-v1/100001/89B0C728-40B4-CC40-AC35-E1BA975EDB8C.root'
p727
aS'/store/mc/RunIIFall18DRPremix/DYToEE_M-50_NNPDF31_TuneCP5_13TeV-powheg-pythia8/AODSIM/102X_upgrade2018_realistic_v11-v1/100000/D656D42A-149E-B54C-85A1-6909FA9A3124.root'
p728
aS'/store/mc/RunIIFall18DRPremix/DYToEE_M-50_NNPDF31_TuneCP5_13TeV-powheg-pythia8/AODSIM/102X_upgrade2018_realistic_v11-v1/100000/C2F204B0-077B-F345-AF24-1E710061364A.root'
p729
aS'/store/mc/RunIIFall18DRPremix/DYToEE_M-50_NNPDF31_TuneCP5_13TeV-powheg-pythia8/AODSIM/102X_upgrade2018_realistic_v11-v1/100001/CAD76AF3-9BE6-3348-94FF-6350D973C511.root'
p730
aS'/store/mc/RunIIFall18DRPremix/DYToEE_M-50_NNPDF31_TuneCP5_13TeV-powheg-pythia8/AODSIM/102X_upgrade2018_realistic_v11-v1/100000/B2D27102-4BD1-0948-8422-AE891A6526FC.root'
p731
aS'/store/mc/RunIIFall18DRPremix/DYToEE_M-50_NNPDF31_TuneCP5_13TeV-powheg-pythia8/AODSIM/102X_upgrade2018_realistic_v11-v1/100000/C0DE2EB7-51A5-DD4A-8889-BF2AE0DA79E8.root'
p732
aS'/store/mc/RunIIFall18DRPremix/DYToEE_M-50_NNPDF31_TuneCP5_13TeV-powheg-pythia8/AODSIM/102X_upgrade2018_realistic_v11-v1/100000/407956A2-22A2-2E45-BA86-78BEBD9C72EC.root'
p733
aS'/store/mc/RunIIFall18DRPremix/DYToEE_M-50_NNPDF31_TuneCP5_13TeV-powheg-pythia8/AODSIM/102X_upgrade2018_realistic_v11-v1/100000/BFAC62BF-FB70-5642-87CE-30A12646C473.root'
p734
aS'/store/mc/RunIIFall18DRPremix/DYToEE_M-50_NNPDF31_TuneCP5_13TeV-powheg-pythia8/AODSIM/102X_upgrade2018_realistic_v11-v1/100000/CE1A3F12-0019-B54E-9094-61A5FA708A7B.root'
p735
aS'/store/mc/RunIIFall18DRPremix/DYToEE_M-50_NNPDF31_TuneCP5_13TeV-powheg-pythia8/AODSIM/102X_upgrade2018_realistic_v11-v1/100000/D4222B56-6629-144D-995D-9ED301770063.root'
p736
aS'/store/mc/RunIIFall18DRPremix/DYToEE_M-50_NNPDF31_TuneCP5_13TeV-powheg-pythia8/AODSIM/102X_upgrade2018_realistic_v11-v1/100000/AA5639BD-3ADD-594D-85B6-EBD139E2D3DB.root'
p737
aS'/store/mc/RunIIFall18DRPremix/DYToEE_M-50_NNPDF31_TuneCP5_13TeV-powheg-pythia8/AODSIM/102X_upgrade2018_realistic_v11-v1/100000/D675FFCA-F21C-AA46-9495-9AB66E27E154.root'
p738
aS'/store/mc/RunIIFall18DRPremix/DYToEE_M-50_NNPDF31_TuneCP5_13TeV-powheg-pythia8/AODSIM/102X_upgrade2018_realistic_v11-v1/100000/6DDA4C3F-E847-FA4E-815B-39D1BCE643E3.root'
p739
aS'/store/mc/RunIIFall18DRPremix/DYToEE_M-50_NNPDF31_TuneCP5_13TeV-powheg-pythia8/AODSIM/102X_upgrade2018_realistic_v11-v1/100000/5D15C60F-53B0-8448-BE5E-9B2A48889468.root'
p740
aS'/store/mc/RunIIFall18DRPremix/DYToEE_M-50_NNPDF31_TuneCP5_13TeV-powheg-pythia8/AODSIM/102X_upgrade2018_realistic_v11-v1/100000/CE2A2925-0DC1-9C4A-8370-8A8B909C0EF4.root'
p741
aS'/store/mc/RunIIFall18DRPremix/DYToEE_M-50_NNPDF31_TuneCP5_13TeV-powheg-pythia8/AODSIM/102X_upgrade2018_realistic_v11-v1/100000/9F7D588A-0A12-7341-A608-D02FFFA5A98D.root'
p742
aS'/store/mc/RunIIFall18DRPremix/DYToEE_M-50_NNPDF31_TuneCP5_13TeV-powheg-pythia8/AODSIM/102X_upgrade2018_realistic_v11-v1/100000/8A4E4CA0-6E65-4A4A-9D47-49FFF13300BC.root'
p743
aS'/store/mc/RunIIFall18DRPremix/DYToEE_M-50_NNPDF31_TuneCP5_13TeV-powheg-pythia8/AODSIM/102X_upgrade2018_realistic_v11-v1/100000/8E1D6647-545B-2A45-8F5F-CEECE24B5413.root'
p744
aS'/store/mc/RunIIFall18DRPremix/DYToEE_M-50_NNPDF31_TuneCP5_13TeV-powheg-pythia8/AODSIM/102X_upgrade2018_realistic_v11-v1/100000/A4E85176-FD7D-1E45-932C-2C2E3F123177.root'
p745
aS'/store/mc/RunIIFall18DRPremix/DYToEE_M-50_NNPDF31_TuneCP5_13TeV-powheg-pythia8/AODSIM/102X_upgrade2018_realistic_v11-v1/100000/1FAE638A-817E-CD4F-AC81-8F8EB1554286.root'
p746
aS'/store/mc/RunIIFall18DRPremix/DYToEE_M-50_NNPDF31_TuneCP5_13TeV-powheg-pythia8/AODSIM/102X_upgrade2018_realistic_v11-v1/100000/F110A3D8-4C08-A64F-8706-1CA676F01C4D.root'
p747
aS'/store/mc/RunIIFall18DRPremix/DYToEE_M-50_NNPDF31_TuneCP5_13TeV-powheg-pythia8/AODSIM/102X_upgrade2018_realistic_v11-v1/100000/450C0EDF-D933-6B49-BC39-FC07EB54ED15.root'
p748
aS'/store/mc/RunIIFall18DRPremix/DYToEE_M-50_NNPDF31_TuneCP5_13TeV-powheg-pythia8/AODSIM/102X_upgrade2018_realistic_v11-v1/100000/3E9320A2-AD60-D748-A1DF-3FD82FBD3205.root'
p749
aS'/store/mc/RunIIFall18DRPremix/DYToEE_M-50_NNPDF31_TuneCP5_13TeV-powheg-pythia8/AODSIM/102X_upgrade2018_realistic_v11-v1/100000/6185DEA1-DA9C-DF49-B863-718B10581DB3.root'
p750
aS'/store/mc/RunIIFall18DRPremix/DYToEE_M-50_NNPDF31_TuneCP5_13TeV-powheg-pythia8/AODSIM/102X_upgrade2018_realistic_v11-v1/100000/E242848D-0B1D-D44E-B0EA-8B0B43B5036A.root'
p751
aS'/store/mc/RunIIFall18DRPremix/DYToEE_M-50_NNPDF31_TuneCP5_13TeV-powheg-pythia8/AODSIM/102X_upgrade2018_realistic_v11-v1/100000/720EB926-544A-174D-A07C-6BEF789D72BF.root'
p752
aS'/store/mc/RunIIFall18DRPremix/DYToEE_M-50_NNPDF31_TuneCP5_13TeV-powheg-pythia8/AODSIM/102X_upgrade2018_realistic_v11-v1/100000/1FD26A66-FEFA-574C-9D27-B7FA69D46CCD.root'
p753
aS'/store/mc/RunIIFall18DRPremix/DYToEE_M-50_NNPDF31_TuneCP5_13TeV-powheg-pythia8/AODSIM/102X_upgrade2018_realistic_v11-v1/100000/C8F6565D-B198-7246-894A-B33C2EE175ED.root'
p754
aS'/store/mc/RunIIFall18DRPremix/DYToEE_M-50_NNPDF31_TuneCP5_13TeV-powheg-pythia8/AODSIM/102X_upgrade2018_realistic_v11-v1/100000/656A092A-EF8D-F84E-8B1F-3E10EF2618AF.root'
p755
aS'/store/mc/RunIIFall18DRPremix/DYToEE_M-50_NNPDF31_TuneCP5_13TeV-powheg-pythia8/AODSIM/102X_upgrade2018_realistic_v11-v1/100000/05A30233-2092-BF4D-9B3F-8D112ECD6879.root'
p756
aS'/store/mc/RunIIFall18DRPremix/DYToEE_M-50_NNPDF31_TuneCP5_13TeV-powheg-pythia8/AODSIM/102X_upgrade2018_realistic_v11-v1/100000/7D917B6D-00BA-2144-AE56-3A4FDCEBE4E5.root'
p757
aS'/store/mc/RunIIFall18DRPremix/DYToEE_M-50_NNPDF31_TuneCP5_13TeV-powheg-pythia8/AODSIM/102X_upgrade2018_realistic_v11-v1/100000/F75718EA-A760-194B-A4D1-14163F305A45.root'
p758
aS'/store/mc/RunIIFall18DRPremix/DYToEE_M-50_NNPDF31_TuneCP5_13TeV-powheg-pythia8/AODSIM/102X_upgrade2018_realistic_v11-v1/100000/92B8DADB-18E4-7D45-9329-E41FD2993E89.root'
p759
aS'/store/mc/RunIIFall18DRPremix/DYToEE_M-50_NNPDF31_TuneCP5_13TeV-powheg-pythia8/AODSIM/102X_upgrade2018_realistic_v11-v1/100000/87668781-213D-3240-9D79-8019A1FE4023.root'
p760
aS'/store/mc/RunIIFall18DRPremix/DYToEE_M-50_NNPDF31_TuneCP5_13TeV-powheg-pythia8/AODSIM/102X_upgrade2018_realistic_v11-v1/100000/8223A3DF-3431-9C42-AB04-37AC5F765619.root'
p761
aS'/store/mc/RunIIFall18DRPremix/DYToEE_M-50_NNPDF31_TuneCP5_13TeV-powheg-pythia8/AODSIM/102X_upgrade2018_realistic_v11-v1/100000/EEB620D2-98E7-1341-B2EF-FDD37168AB6C.root'
p762
aS'/store/mc/RunIIFall18DRPremix/DYToEE_M-50_NNPDF31_TuneCP5_13TeV-powheg-pythia8/AODSIM/102X_upgrade2018_realistic_v11-v1/100000/3B246C0D-B74F-1C4E-8778-1D939AB2BA07.root'
p763
aS'/store/mc/RunIIFall18DRPremix/DYToEE_M-50_NNPDF31_TuneCP5_13TeV-powheg-pythia8/AODSIM/102X_upgrade2018_realistic_v11-v1/100000/66344CF8-89D5-6D4C-BA39-A47E968D0011.root'
p764
aS'/store/mc/RunIIFall18DRPremix/DYToEE_M-50_NNPDF31_TuneCP5_13TeV-powheg-pythia8/AODSIM/102X_upgrade2018_realistic_v11-v1/100000/F9CED079-89AF-EB41-BDED-D164DAC473C1.root'
p765
aS'/store/mc/RunIIFall18DRPremix/DYToEE_M-50_NNPDF31_TuneCP5_13TeV-powheg-pythia8/AODSIM/102X_upgrade2018_realistic_v11-v1/100000/ACEF0874-1729-3D47-85CC-0B5F1D9EDCEB.root'
p766
aS'/store/mc/RunIIFall18DRPremix/DYToEE_M-50_NNPDF31_TuneCP5_13TeV-powheg-pythia8/AODSIM/102X_upgrade2018_realistic_v11-v1/100000/A3AF7A4C-331D-884D-A8DD-E6615E8F7983.root'
p767
aS'/store/mc/RunIIFall18DRPremix/DYToEE_M-50_NNPDF31_TuneCP5_13TeV-powheg-pythia8/AODSIM/102X_upgrade2018_realistic_v11-v1/100000/416E13D4-077F-CE4E-A598-A9A4B2ADE388.root'
p768
aS'/store/mc/RunIIFall18DRPremix/DYToEE_M-50_NNPDF31_TuneCP5_13TeV-powheg-pythia8/AODSIM/102X_upgrade2018_realistic_v11-v1/100000/FC6B7187-D98C-0241-A3DE-53ECC00F0A4A.root'
p769
aS'/store/mc/RunIIFall18DRPremix/DYToEE_M-50_NNPDF31_TuneCP5_13TeV-powheg-pythia8/AODSIM/102X_upgrade2018_realistic_v11-v1/100000/CDDCA39B-CD2A-6A40-9723-A7F4E74D3E88.root'
p770
aS'/store/mc/RunIIFall18DRPremix/DYToEE_M-50_NNPDF31_TuneCP5_13TeV-powheg-pythia8/AODSIM/102X_upgrade2018_realistic_v11-v1/100000/3AD08005-901F-D24C-9606-F2DBB15AD4FD.root'
p771
aS'/store/mc/RunIIFall18DRPremix/DYToEE_M-50_NNPDF31_TuneCP5_13TeV-powheg-pythia8/AODSIM/102X_upgrade2018_realistic_v11-v1/100000/53DB1AEE-C81B-0743-A94E-19D3C74F8A69.root'
p772
aS'/store/mc/RunIIFall18DRPremix/DYToEE_M-50_NNPDF31_TuneCP5_13TeV-powheg-pythia8/AODSIM/102X_upgrade2018_realistic_v11-v1/100001/95D1C976-7D75-5446-A3C2-9F05C93DDC61.root'
p773
aS'/store/mc/RunIIFall18DRPremix/DYToEE_M-50_NNPDF31_TuneCP5_13TeV-powheg-pythia8/AODSIM/102X_upgrade2018_realistic_v11-v1/100001/2816D9E0-CBA7-2844-B207-1EAFEA680E04.root'
p774
aS'/store/mc/RunIIFall18DRPremix/DYToEE_M-50_NNPDF31_TuneCP5_13TeV-powheg-pythia8/AODSIM/102X_upgrade2018_realistic_v11-v1/100001/8FFD31E4-A7CF-1C4B-B494-16FD507899D8.root'
p775
aS'/store/mc/RunIIFall18DRPremix/DYToEE_M-50_NNPDF31_TuneCP5_13TeV-powheg-pythia8/AODSIM/102X_upgrade2018_realistic_v11-v1/100000/603F98FC-2044-CB45-AB1E-6CCA69FE6303.root'
p776
aS'/store/mc/RunIIFall18DRPremix/DYToEE_M-50_NNPDF31_TuneCP5_13TeV-powheg-pythia8/AODSIM/102X_upgrade2018_realistic_v11-v1/100001/CFAFF54A-A720-0344-B529-13F6AECDC7A6.root'
p777
aS'/store/mc/RunIIFall18DRPremix/DYToEE_M-50_NNPDF31_TuneCP5_13TeV-powheg-pythia8/AODSIM/102X_upgrade2018_realistic_v11-v1/100000/BAF84501-6162-B243-84EB-E8B1E3A2C4B5.root'
p778
aS'/store/mc/RunIIFall18DRPremix/DYToEE_M-50_NNPDF31_TuneCP5_13TeV-powheg-pythia8/AODSIM/102X_upgrade2018_realistic_v11-v1/100000/B331E2DC-7086-E444-81AE-58BC62D18983.root'
p779
aS'/store/mc/RunIIFall18DRPremix/DYToEE_M-50_NNPDF31_TuneCP5_13TeV-powheg-pythia8/AODSIM/102X_upgrade2018_realistic_v11-v1/100000/D582CBA2-9CC2-384C-9518-249E4867405B.root'
p780
aS'/store/mc/RunIIFall18DRPremix/DYToEE_M-50_NNPDF31_TuneCP5_13TeV-powheg-pythia8/AODSIM/102X_upgrade2018_realistic_v11-v1/100000/4CBBF5F0-049D-A447-B836-13542DE2B087.root'
p781
aS'/store/mc/RunIIFall18DRPremix/DYToEE_M-50_NNPDF31_TuneCP5_13TeV-powheg-pythia8/AODSIM/102X_upgrade2018_realistic_v11-v1/100000/82C8914D-767E-9E45-86B0-E64FE6CB2109.root'
p782
aS'/store/mc/RunIIFall18DRPremix/DYToEE_M-50_NNPDF31_TuneCP5_13TeV-powheg-pythia8/AODSIM/102X_upgrade2018_realistic_v11-v1/100000/24CDB9EB-D294-EE4C-98C0-C8232D7C76ED.root'
p783
aS'/store/mc/RunIIFall18DRPremix/DYToEE_M-50_NNPDF31_TuneCP5_13TeV-powheg-pythia8/AODSIM/102X_upgrade2018_realistic_v11-v1/100000/774AE724-FB01-254C-A31D-632A7D5313A3.root'
p784
aS'/store/mc/RunIIFall18DRPremix/DYToEE_M-50_NNPDF31_TuneCP5_13TeV-powheg-pythia8/AODSIM/102X_upgrade2018_realistic_v11-v1/100000/82AAA67B-99B2-0540-B4B0-87268C8FBF63.root'
p785
aS'/store/mc/RunIIFall18DRPremix/DYToEE_M-50_NNPDF31_TuneCP5_13TeV-powheg-pythia8/AODSIM/102X_upgrade2018_realistic_v11-v1/100000/D0C58F73-FC88-AB42-A8AC-CC2794F2B394.root'
p786
aS'/store/mc/RunIIFall18DRPremix/DYToEE_M-50_NNPDF31_TuneCP5_13TeV-powheg-pythia8/AODSIM/102X_upgrade2018_realistic_v11-v1/100000/2FAA14EE-2CD3-AD4F-B92A-9019D645BD1A.root'
p787
aS'/store/mc/RunIIFall18DRPremix/DYToEE_M-50_NNPDF31_TuneCP5_13TeV-powheg-pythia8/AODSIM/102X_upgrade2018_realistic_v11-v1/100000/056C860E-EEA6-554B-8976-A14EF785F5DD.root'
p788
aS'/store/mc/RunIIFall18DRPremix/DYToEE_M-50_NNPDF31_TuneCP5_13TeV-powheg-pythia8/AODSIM/102X_upgrade2018_realistic_v11-v1/100000/522F17EF-C003-1649-9592-0C72D9E7DC2D.root'
p789
aS'/store/mc/RunIIFall18DRPremix/DYToEE_M-50_NNPDF31_TuneCP5_13TeV-powheg-pythia8/AODSIM/102X_upgrade2018_realistic_v11-v1/100000/972C4853-23F5-2F4E-BA2E-D8E7A2F5FD7D.root'
p790
aS'/store/mc/RunIIFall18DRPremix/DYToEE_M-50_NNPDF31_TuneCP5_13TeV-powheg-pythia8/AODSIM/102X_upgrade2018_realistic_v11-v1/100000/2D339D8D-A58C-2A48-94FA-0471E962BC82.root'
p791
aS'/store/mc/RunIIFall18DRPremix/DYToEE_M-50_NNPDF31_TuneCP5_13TeV-powheg-pythia8/AODSIM/102X_upgrade2018_realistic_v11-v1/100000/3C93D77F-D40C-E641-B9FA-ED6304AB90CC.root'
p792
aS'/store/mc/RunIIFall18DRPremix/DYToEE_M-50_NNPDF31_TuneCP5_13TeV-powheg-pythia8/AODSIM/102X_upgrade2018_realistic_v11-v1/100000/017F7C5E-2BA2-074E-A22E-B28206734888.root'
p793
aS'/store/mc/RunIIFall18DRPremix/DYToEE_M-50_NNPDF31_TuneCP5_13TeV-powheg-pythia8/AODSIM/102X_upgrade2018_realistic_v11-v1/100000/37630270-FDEE-E342-BD14-C7840EB92F0C.root'
p794
aS'/store/mc/RunIIFall18DRPremix/DYToEE_M-50_NNPDF31_TuneCP5_13TeV-powheg-pythia8/AODSIM/102X_upgrade2018_realistic_v11-v1/100000/2828FE67-F85B-2046-912F-3E3AAF11B162.root'
p795
aS'/store/mc/RunIIFall18DRPremix/DYToEE_M-50_NNPDF31_TuneCP5_13TeV-powheg-pythia8/AODSIM/102X_upgrade2018_realistic_v11-v1/100000/808A2BA0-F809-BE4F-AA8C-04A3B183D5C7.root'
p796
aS'/store/mc/RunIIFall18DRPremix/DYToEE_M-50_NNPDF31_TuneCP5_13TeV-powheg-pythia8/AODSIM/102X_upgrade2018_realistic_v11-v1/100000/389F3BA4-215E-A241-905B-9C711ED3A21A.root'
p797
aS'/store/mc/RunIIFall18DRPremix/DYToEE_M-50_NNPDF31_TuneCP5_13TeV-powheg-pythia8/AODSIM/102X_upgrade2018_realistic_v11-v1/100000/3C5010C5-8DA0-D144-AE4A-BCE8D62E501B.root'
p798
aS'/store/mc/RunIIFall18DRPremix/DYToEE_M-50_NNPDF31_TuneCP5_13TeV-powheg-pythia8/AODSIM/102X_upgrade2018_realistic_v11-v1/100000/192ABB1B-A78D-4641-9954-ED4687E76549.root'
p799
aS'/store/mc/RunIIFall18DRPremix/DYToEE_M-50_NNPDF31_TuneCP5_13TeV-powheg-pythia8/AODSIM/102X_upgrade2018_realistic_v11-v1/100000/86443D41-A69B-294A-8146-1DE4D655E368.root'
p800
aS'/store/mc/RunIIFall18DRPremix/DYToEE_M-50_NNPDF31_TuneCP5_13TeV-powheg-pythia8/AODSIM/102X_upgrade2018_realistic_v11-v1/100000/E061BC9E-31C6-9D42-A344-71BBC293A5EB.root'
p801
aS'/store/mc/RunIIFall18DRPremix/DYToEE_M-50_NNPDF31_TuneCP5_13TeV-powheg-pythia8/AODSIM/102X_upgrade2018_realistic_v11-v1/100000/51EF3978-D452-F54C-883A-03D422205DD8.root'
p802
aS'/store/mc/RunIIFall18DRPremix/DYToEE_M-50_NNPDF31_TuneCP5_13TeV-powheg-pythia8/AODSIM/102X_upgrade2018_realistic_v11-v1/100000/D515FF3C-86CE-4043-8C0B-8756C14CE8CE.root'
p803
aS'/store/mc/RunIIFall18DRPremix/DYToEE_M-50_NNPDF31_TuneCP5_13TeV-powheg-pythia8/AODSIM/102X_upgrade2018_realistic_v11-v1/100000/D9F1ADAE-A2AD-2C42-8C03-753CE2EC0D9E.root'
p804
aS'/store/mc/RunIIFall18DRPremix/DYToEE_M-50_NNPDF31_TuneCP5_13TeV-powheg-pythia8/AODSIM/102X_upgrade2018_realistic_v11-v1/100000/B7EFD589-0AC9-5A41-ACE0-646BE30AD943.root'
p805
aS'/store/mc/RunIIFall18DRPremix/DYToEE_M-50_NNPDF31_TuneCP5_13TeV-powheg-pythia8/AODSIM/102X_upgrade2018_realistic_v11-v1/100001/522B3FB0-C66D-C04B-A104-15578F26F255.root'
p806
aS'/store/mc/RunIIFall18DRPremix/DYToEE_M-50_NNPDF31_TuneCP5_13TeV-powheg-pythia8/AODSIM/102X_upgrade2018_realistic_v11-v1/100000/BD7EDCCA-1D2C-254D-807F-2BDC06C224DA.root'
p807
aS'/store/mc/RunIIFall18DRPremix/DYToEE_M-50_NNPDF31_TuneCP5_13TeV-powheg-pythia8/AODSIM/102X_upgrade2018_realistic_v11-v1/100001/E496F6DE-BA5E-0F4D-9C2C-A52825A582D8.root'
p808
aS'/store/mc/RunIIFall18DRPremix/DYToEE_M-50_NNPDF31_TuneCP5_13TeV-powheg-pythia8/AODSIM/102X_upgrade2018_realistic_v11-v1/100001/34DC56F8-FA92-6D4C-9497-5F7A05BC6E79.root'
p809
aS'/store/mc/RunIIFall18DRPremix/DYToEE_M-50_NNPDF31_TuneCP5_13TeV-powheg-pythia8/AODSIM/102X_upgrade2018_realistic_v11-v1/100001/39A2DD71-0CCF-9A4F-932B-0CDFDE72647B.root'
p810
aS'/store/mc/RunIIFall18DRPremix/DYToEE_M-50_NNPDF31_TuneCP5_13TeV-powheg-pythia8/AODSIM/102X_upgrade2018_realistic_v11-v1/100000/E8FC0099-8861-B04E-A900-CFF50CC6B834.root'
p811
aS'/store/mc/RunIIFall18DRPremix/DYToEE_M-50_NNPDF31_TuneCP5_13TeV-powheg-pythia8/AODSIM/102X_upgrade2018_realistic_v11-v1/100001/66CBF7FF-1928-7E42-9C5E-5B4F2BC64048.root'
p812
aS'/store/mc/RunIIFall18DRPremix/DYToEE_M-50_NNPDF31_TuneCP5_13TeV-powheg-pythia8/AODSIM/102X_upgrade2018_realistic_v11-v1/100001/A361E4AE-D952-4046-8E68-1D641F419393.root'
p813
aS'/store/mc/RunIIFall18DRPremix/DYToEE_M-50_NNPDF31_TuneCP5_13TeV-powheg-pythia8/AODSIM/102X_upgrade2018_realistic_v11-v1/100001/159F3937-A6F2-6D43-9D2F-CE25F72780C2.root'
p814
aS'/store/mc/RunIIFall18DRPremix/DYToEE_M-50_NNPDF31_TuneCP5_13TeV-powheg-pythia8/AODSIM/102X_upgrade2018_realistic_v11-v1/100001/7A277455-F41F-724E-BA95-38B62CC5CF23.root'
p815
aS'/store/mc/RunIIFall18DRPremix/DYToEE_M-50_NNPDF31_TuneCP5_13TeV-powheg-pythia8/AODSIM/102X_upgrade2018_realistic_v11-v1/100001/B752F3E0-FA00-934F-85F2-E00BAEFCBB76.root'
p816
aS'/store/mc/RunIIFall18DRPremix/DYToEE_M-50_NNPDF31_TuneCP5_13TeV-powheg-pythia8/AODSIM/102X_upgrade2018_realistic_v11-v1/100000/7B5D7F40-7A12-F849-8620-EB7FC272C934.root'
p817
aS'/store/mc/RunIIFall18DRPremix/DYToEE_M-50_NNPDF31_TuneCP5_13TeV-powheg-pythia8/AODSIM/102X_upgrade2018_realistic_v11-v1/100001/14143260-DF43-8543-AAC4-5F785BC647F0.root'
p818
aS'/store/mc/RunIIFall18DRPremix/DYToEE_M-50_NNPDF31_TuneCP5_13TeV-powheg-pythia8/AODSIM/102X_upgrade2018_realistic_v11-v1/100001/8081E168-6C8F-0544-94B1-805171FB4883.root'
p819
aS'/store/mc/RunIIFall18DRPremix/DYToEE_M-50_NNPDF31_TuneCP5_13TeV-powheg-pythia8/AODSIM/102X_upgrade2018_realistic_v11-v1/100001/E8972610-CECE-D045-B647-350A650CD80C.root'
p820
aS'/store/mc/RunIIFall18DRPremix/DYToEE_M-50_NNPDF31_TuneCP5_13TeV-powheg-pythia8/AODSIM/102X_upgrade2018_realistic_v11-v1/100001/B1A0B1DD-352C-064D-BFBB-5095EE9092D9.root'
p821
aS'/store/mc/RunIIFall18DRPremix/DYToEE_M-50_NNPDF31_TuneCP5_13TeV-powheg-pythia8/AODSIM/102X_upgrade2018_realistic_v11-v1/100000/6A22B7C5-A7CC-E34B-98F5-A786A15C85A9.root'
p822
aS'/store/mc/RunIIFall18DRPremix/DYToEE_M-50_NNPDF31_TuneCP5_13TeV-powheg-pythia8/AODSIM/102X_upgrade2018_realistic_v11-v1/100000/01050479-DEF4-CE4A-9E38-2570A826683C.root'
p823
aS'/store/mc/RunIIFall18DRPremix/DYToEE_M-50_NNPDF31_TuneCP5_13TeV-powheg-pythia8/AODSIM/102X_upgrade2018_realistic_v11-v1/100000/05839EB7-B9D0-3641-A7AB-5CBD61D144C0.root'
p824
aS'/store/mc/RunIIFall18DRPremix/DYToEE_M-50_NNPDF31_TuneCP5_13TeV-powheg-pythia8/AODSIM/102X_upgrade2018_realistic_v11-v1/100000/F869EBC0-B1CA-AD47-99C5-868595596871.root'
p825
aS'/store/mc/RunIIFall18DRPremix/DYToEE_M-50_NNPDF31_TuneCP5_13TeV-powheg-pythia8/AODSIM/102X_upgrade2018_realistic_v11-v1/100000/4AE57BFF-2FEC-534F-90DC-731B1F258BFF.root'
p826
aS'/store/mc/RunIIFall18DRPremix/DYToEE_M-50_NNPDF31_TuneCP5_13TeV-powheg-pythia8/AODSIM/102X_upgrade2018_realistic_v11-v1/100000/3FD22221-868D-6447-9D2C-1F9A0FE7AF22.root'
p827
aS'/store/mc/RunIIFall18DRPremix/DYToEE_M-50_NNPDF31_TuneCP5_13TeV-powheg-pythia8/AODSIM/102X_upgrade2018_realistic_v11-v1/100000/ADC2B4FA-9F85-1741-A207-44F00C6A0D01.root'
p828
aS'/store/mc/RunIIFall18DRPremix/DYToEE_M-50_NNPDF31_TuneCP5_13TeV-powheg-pythia8/AODSIM/102X_upgrade2018_realistic_v11-v1/100000/458AEA05-F617-D04C-8C08-B8C61305C5DA.root'
p829
aS'/store/mc/RunIIFall18DRPremix/DYToEE_M-50_NNPDF31_TuneCP5_13TeV-powheg-pythia8/AODSIM/102X_upgrade2018_realistic_v11-v1/100000/3571AAEA-E952-9A42-A0BC-BF226C9523C7.root'
p830
aS'/store/mc/RunIIFall18DRPremix/DYToEE_M-50_NNPDF31_TuneCP5_13TeV-powheg-pythia8/AODSIM/102X_upgrade2018_realistic_v11-v1/100000/024BD7E2-A11C-284E-8FFE-32154173794D.root'
p831
aS'/store/mc/RunIIFall18DRPremix/DYToEE_M-50_NNPDF31_TuneCP5_13TeV-powheg-pythia8/AODSIM/102X_upgrade2018_realistic_v11-v1/100000/FF451EC5-6694-8C45-84B9-A00F2DC982FB.root'
p832
aS'/store/mc/RunIIFall18DRPremix/DYToEE_M-50_NNPDF31_TuneCP5_13TeV-powheg-pythia8/AODSIM/102X_upgrade2018_realistic_v11-v1/100000/D120CC6E-AAEB-5A41-A51B-8C4BFFC76E4A.root'
p833
aS'/store/mc/RunIIFall18DRPremix/DYToEE_M-50_NNPDF31_TuneCP5_13TeV-powheg-pythia8/AODSIM/102X_upgrade2018_realistic_v11-v1/100000/A01946DD-4801-9741-8DCB-2D849E47C81B.root'
p834
aS'/store/mc/RunIIFall18DRPremix/DYToEE_M-50_NNPDF31_TuneCP5_13TeV-powheg-pythia8/AODSIM/102X_upgrade2018_realistic_v11-v1/100000/8878A717-A1E4-2B4F-8BCF-EF8A0B6F4D49.root'
p835
aS'/store/mc/RunIIFall18DRPremix/DYToEE_M-50_NNPDF31_TuneCP5_13TeV-powheg-pythia8/AODSIM/102X_upgrade2018_realistic_v11-v1/100000/D9B987A3-8A47-104E-8C22-84DDE7EB17C9.root'
p836
aS'/store/mc/RunIIFall18DRPremix/DYToEE_M-50_NNPDF31_TuneCP5_13TeV-powheg-pythia8/AODSIM/102X_upgrade2018_realistic_v11-v1/100000/545A5781-1FDD-AD46-B5F3-95D909C4224D.root'
p837
aS'/store/mc/RunIIFall18DRPremix/DYToEE_M-50_NNPDF31_TuneCP5_13TeV-powheg-pythia8/AODSIM/102X_upgrade2018_realistic_v11-v1/100000/B234917E-8A40-0949-B06B-0D796E668629.root'
p838
aS'/store/mc/RunIIFall18DRPremix/DYToEE_M-50_NNPDF31_TuneCP5_13TeV-powheg-pythia8/AODSIM/102X_upgrade2018_realistic_v11-v1/100000/1C7206CA-5B07-3E4A-863A-A70DCA2B7547.root'
p839
aS'/store/mc/RunIIFall18DRPremix/DYToEE_M-50_NNPDF31_TuneCP5_13TeV-powheg-pythia8/AODSIM/102X_upgrade2018_realistic_v11-v1/100000/77E7DB30-2802-944B-89A1-43EDD79DB2F1.root'
p840
aS'/store/mc/RunIIFall18DRPremix/DYToEE_M-50_NNPDF31_TuneCP5_13TeV-powheg-pythia8/AODSIM/102X_upgrade2018_realistic_v11-v1/100000/E286CAFD-F055-734F-8B18-3AB52F21EAA3.root'
p841
aS'/store/mc/RunIIFall18DRPremix/DYToEE_M-50_NNPDF31_TuneCP5_13TeV-powheg-pythia8/AODSIM/102X_upgrade2018_realistic_v11-v1/100000/C2952780-9265-7544-A629-1E7061B949F7.root'
p842
aS'/store/mc/RunIIFall18DRPremix/DYToEE_M-50_NNPDF31_TuneCP5_13TeV-powheg-pythia8/AODSIM/102X_upgrade2018_realistic_v11-v1/100000/02AE23C9-F15F-304E-9C34-F75527DFFF15.root'
p843
aS'/store/mc/RunIIFall18DRPremix/DYToEE_M-50_NNPDF31_TuneCP5_13TeV-powheg-pythia8/AODSIM/102X_upgrade2018_realistic_v11-v1/100000/9E030DF9-E85F-4B43-8E2A-291053A97B20.root'
p844
aS'/store/mc/RunIIFall18DRPremix/DYToEE_M-50_NNPDF31_TuneCP5_13TeV-powheg-pythia8/AODSIM/102X_upgrade2018_realistic_v11-v1/100000/B140F5D8-8B91-1345-817A-CE576C4C8EF8.root'
p845
aS'/store/mc/RunIIFall18DRPremix/DYToEE_M-50_NNPDF31_TuneCP5_13TeV-powheg-pythia8/AODSIM/102X_upgrade2018_realistic_v11-v1/100000/9CE8CF35-E797-564D-BC28-3E01C13C292D.root'
p846
aS'/store/mc/RunIIFall18DRPremix/DYToEE_M-50_NNPDF31_TuneCP5_13TeV-powheg-pythia8/AODSIM/102X_upgrade2018_realistic_v11-v1/100000/7549BFC8-697B-AF4A-9334-4C9CE588D2CD.root'
p847
aS'/store/mc/RunIIFall18DRPremix/DYToEE_M-50_NNPDF31_TuneCP5_13TeV-powheg-pythia8/AODSIM/102X_upgrade2018_realistic_v11-v1/100000/3C94F3A6-956A-F14C-BC2F-5765EAB83AF8.root'
p848
aS'/store/mc/RunIIFall18DRPremix/DYToEE_M-50_NNPDF31_TuneCP5_13TeV-powheg-pythia8/AODSIM/102X_upgrade2018_realistic_v11-v1/100000/1CC71A91-B717-FB4F-860A-2C9B2FEAB3FD.root'
p849
aS'/store/mc/RunIIFall18DRPremix/DYToEE_M-50_NNPDF31_TuneCP5_13TeV-powheg-pythia8/AODSIM/102X_upgrade2018_realistic_v11-v1/100001/F2012613-D807-B34E-992F-D6E5B15E7E7C.root'
p850
aS'/store/mc/RunIIFall18DRPremix/DYToEE_M-50_NNPDF31_TuneCP5_13TeV-powheg-pythia8/AODSIM/102X_upgrade2018_realistic_v11-v1/100001/A0195B9C-6E21-7E46-B668-56BA20D33D0A.root'
p851
aS'/store/mc/RunIIFall18DRPremix/DYToEE_M-50_NNPDF31_TuneCP5_13TeV-powheg-pythia8/AODSIM/102X_upgrade2018_realistic_v11-v1/100001/D6B06DEC-3BF7-B847-9156-2E7B7AF7E551.root'
p852
aS'/store/mc/RunIIFall18DRPremix/DYToEE_M-50_NNPDF31_TuneCP5_13TeV-powheg-pythia8/AODSIM/102X_upgrade2018_realistic_v11-v1/100001/14F1F75E-A84B-134B-A511-6B1CBD210295.root'
p853
aS'/store/mc/RunIIFall18DRPremix/DYToEE_M-50_NNPDF31_TuneCP5_13TeV-powheg-pythia8/AODSIM/102X_upgrade2018_realistic_v11-v1/100001/A130A047-BE55-A840-90A4-317F8555504F.root'
p854
aS'/store/mc/RunIIFall18DRPremix/DYToEE_M-50_NNPDF31_TuneCP5_13TeV-powheg-pythia8/AODSIM/102X_upgrade2018_realistic_v11-v1/100001/E3717250-4CC6-A041-89A9-EC9040AA0DA2.root'
p855
aS'/store/mc/RunIIFall18DRPremix/DYToEE_M-50_NNPDF31_TuneCP5_13TeV-powheg-pythia8/AODSIM/102X_upgrade2018_realistic_v11-v1/100001/0F30346D-6AAA-6A44-8CA2-32AE54CBC2ED.root'
p856
aS'/store/mc/RunIIFall18DRPremix/DYToEE_M-50_NNPDF31_TuneCP5_13TeV-powheg-pythia8/AODSIM/102X_upgrade2018_realistic_v11-v1/100001/D01EA054-E0BF-0245-81B6-77BF7653FEF4.root'
p857
aS'/store/mc/RunIIFall18DRPremix/DYToEE_M-50_NNPDF31_TuneCP5_13TeV-powheg-pythia8/AODSIM/102X_upgrade2018_realistic_v11-v1/100000/B2D4E766-EB82-4D46-9A35-3F32FDBF6459.root'
p858
aS'/store/mc/RunIIFall18DRPremix/DYToEE_M-50_NNPDF31_TuneCP5_13TeV-powheg-pythia8/AODSIM/102X_upgrade2018_realistic_v11-v1/100001/6DFDF206-86FE-C443-AEB0-510097577C06.root'
p859
aS'/store/mc/RunIIFall18DRPremix/DYToEE_M-50_NNPDF31_TuneCP5_13TeV-powheg-pythia8/AODSIM/102X_upgrade2018_realistic_v11-v1/100001/108F78B4-CF2A-1E4A-9C52-27EF70ECBC19.root'
p860
aS'/store/mc/RunIIFall18DRPremix/DYToEE_M-50_NNPDF31_TuneCP5_13TeV-powheg-pythia8/AODSIM/102X_upgrade2018_realistic_v11-v1/100001/453CD738-0570-F343-B99E-8017005D3BA8.root'
p861
aS'/store/mc/RunIIFall18DRPremix/DYToEE_M-50_NNPDF31_TuneCP5_13TeV-powheg-pythia8/AODSIM/102X_upgrade2018_realistic_v11-v1/100001/2AD4828B-AAE4-9D43-B264-A51E4C75044E.root'
p862
aS'/store/mc/RunIIFall18DRPremix/DYToEE_M-50_NNPDF31_TuneCP5_13TeV-powheg-pythia8/AODSIM/102X_upgrade2018_realistic_v11-v1/100001/6C73755F-8AD2-EA41-ADFC-1A36750B5593.root'
p863
aS'/store/mc/RunIIFall18DRPremix/DYToEE_M-50_NNPDF31_TuneCP5_13TeV-powheg-pythia8/AODSIM/102X_upgrade2018_realistic_v11-v1/100001/010D33E2-FEC6-A046-9924-52D5139EAD19.root'
p864
aS'/store/mc/RunIIFall18DRPremix/DYToEE_M-50_NNPDF31_TuneCP5_13TeV-powheg-pythia8/AODSIM/102X_upgrade2018_realistic_v11-v1/100001/89E138F4-4878-1A4A-B81A-112CEACB2A96.root'
p865
aS'/store/mc/RunIIFall18DRPremix/DYToEE_M-50_NNPDF31_TuneCP5_13TeV-powheg-pythia8/AODSIM/102X_upgrade2018_realistic_v11-v1/100001/E8605CA8-2D2A-6D4B-8347-A52A27CDB22C.root'
p866
aS'/store/mc/RunIIFall18DRPremix/DYToEE_M-50_NNPDF31_TuneCP5_13TeV-powheg-pythia8/AODSIM/102X_upgrade2018_realistic_v11-v1/100001/693A0C66-8A10-1543-9DEE-26852F4199F5.root'
p867
aS'/store/mc/RunIIFall18DRPremix/DYToEE_M-50_NNPDF31_TuneCP5_13TeV-powheg-pythia8/AODSIM/102X_upgrade2018_realistic_v11-v1/100001/C1515ECD-55A6-B04B-AAB9-549D5A4D6471.root'
p868
aS'/store/mc/RunIIFall18DRPremix/DYToEE_M-50_NNPDF31_TuneCP5_13TeV-powheg-pythia8/AODSIM/102X_upgrade2018_realistic_v11-v1/100000/473A2A84-D8F8-4B4D-AD02-F772DF3D1F15.root'
p869
aS'/store/mc/RunIIFall18DRPremix/DYToEE_M-50_NNPDF31_TuneCP5_13TeV-powheg-pythia8/AODSIM/102X_upgrade2018_realistic_v11-v1/100001/4A7AB849-5C88-FC4F-BEAB-5BE60DA652EF.root'
p870
aS'/store/mc/RunIIFall18DRPremix/DYToEE_M-50_NNPDF31_TuneCP5_13TeV-powheg-pythia8/AODSIM/102X_upgrade2018_realistic_v11-v1/100000/50BED929-5ECD-3448-AB8F-AFB713433B6E.root'
p871
aS'/store/mc/RunIIFall18DRPremix/DYToEE_M-50_NNPDF31_TuneCP5_13TeV-powheg-pythia8/AODSIM/102X_upgrade2018_realistic_v11-v1/100000/D17D0C53-F2C4-9A43-8EBC-56D13584ED7C.root'
p872
aS'/store/mc/RunIIFall18DRPremix/DYToEE_M-50_NNPDF31_TuneCP5_13TeV-powheg-pythia8/AODSIM/102X_upgrade2018_realistic_v11-v1/100000/0C97556E-5B56-B544-AF5A-2B9FF75ECE53.root'
p873
aS'/store/mc/RunIIFall18DRPremix/DYToEE_M-50_NNPDF31_TuneCP5_13TeV-powheg-pythia8/AODSIM/102X_upgrade2018_realistic_v11-v1/100000/98FF9094-534B-B449-8268-E1EBA5BB9540.root'
p874
aS'/store/mc/RunIIFall18DRPremix/DYToEE_M-50_NNPDF31_TuneCP5_13TeV-powheg-pythia8/AODSIM/102X_upgrade2018_realistic_v11-v1/100000/28130577-BAAC-614A-8049-53E1AFF5B3F9.root'
p875
aS'/store/mc/RunIIFall18DRPremix/DYToEE_M-50_NNPDF31_TuneCP5_13TeV-powheg-pythia8/AODSIM/102X_upgrade2018_realistic_v11-v1/100000/28880FA6-8159-B04E-877F-F219F00DE482.root'
p876
aS'/store/mc/RunIIFall18DRPremix/DYToEE_M-50_NNPDF31_TuneCP5_13TeV-powheg-pythia8/AODSIM/102X_upgrade2018_realistic_v11-v1/100000/44BBD59B-216B-FB46-95DE-8EB2B0B21D1E.root'
p877
aS'/store/mc/RunIIFall18DRPremix/DYToEE_M-50_NNPDF31_TuneCP5_13TeV-powheg-pythia8/AODSIM/102X_upgrade2018_realistic_v11-v1/100000/2C6D4ABC-7CC7-2C43-84D1-C5D1D1F5D7D8.root'
p878
aS'/store/mc/RunIIFall18DRPremix/DYToEE_M-50_NNPDF31_TuneCP5_13TeV-powheg-pythia8/AODSIM/102X_upgrade2018_realistic_v11-v1/100000/67D25767-0F3E-314E-9CDF-21D513DFBF50.root'
p879
aS'/store/mc/RunIIFall18DRPremix/DYToEE_M-50_NNPDF31_TuneCP5_13TeV-powheg-pythia8/AODSIM/102X_upgrade2018_realistic_v11-v1/100000/825F5C4D-4B81-DF4A-AE04-78DD9821D0C6.root'
p880
aS'/store/mc/RunIIFall18DRPremix/DYToEE_M-50_NNPDF31_TuneCP5_13TeV-powheg-pythia8/AODSIM/102X_upgrade2018_realistic_v11-v1/100000/30EE385A-9054-8543-A4B3-471270634C75.root'
p881
aS'/store/mc/RunIIFall18DRPremix/DYToEE_M-50_NNPDF31_TuneCP5_13TeV-powheg-pythia8/AODSIM/102X_upgrade2018_realistic_v11-v1/100000/7E54AE5B-6286-ED4D-87E9-407BA45D7762.root'
p882
aS'/store/mc/RunIIFall18DRPremix/DYToEE_M-50_NNPDF31_TuneCP5_13TeV-powheg-pythia8/AODSIM/102X_upgrade2018_realistic_v11-v1/100000/CB759459-C8EA-F84D-8BA2-DAF8D500C5D6.root'
p883
aS'/store/mc/RunIIFall18DRPremix/DYToEE_M-50_NNPDF31_TuneCP5_13TeV-powheg-pythia8/AODSIM/102X_upgrade2018_realistic_v11-v1/100000/EB94478B-E4CC-4540-9BE6-358267BFB4F4.root'
p884
aS'/store/mc/RunIIFall18DRPremix/DYToEE_M-50_NNPDF31_TuneCP5_13TeV-powheg-pythia8/AODSIM/102X_upgrade2018_realistic_v11-v1/100000/6600B2CC-4096-1243-B71D-096C2EC6C0E1.root'
p885
aS'/store/mc/RunIIFall18DRPremix/DYToEE_M-50_NNPDF31_TuneCP5_13TeV-powheg-pythia8/AODSIM/102X_upgrade2018_realistic_v11-v1/100000/6E4FC553-1F1D-AC47-ACCF-B72C09CDC312.root'
p886
aS'/store/mc/RunIIFall18DRPremix/DYToEE_M-50_NNPDF31_TuneCP5_13TeV-powheg-pythia8/AODSIM/102X_upgrade2018_realistic_v11-v1/100000/161C64DA-ADF8-644E-8CC5-B042BC21F8C2.root'
p887
aS'/store/mc/RunIIFall18DRPremix/DYToEE_M-50_NNPDF31_TuneCP5_13TeV-powheg-pythia8/AODSIM/102X_upgrade2018_realistic_v11-v1/100000/5AFD1F58-397A-044D-B3CA-BDB60BBE2D9C.root'
p888
aS'/store/mc/RunIIFall18DRPremix/DYToEE_M-50_NNPDF31_TuneCP5_13TeV-powheg-pythia8/AODSIM/102X_upgrade2018_realistic_v11-v1/100000/3FEA7A7D-A6D3-1C4B-89DF-CB5DA47C3EBD.root'
p889
aS'/store/mc/RunIIFall18DRPremix/DYToEE_M-50_NNPDF31_TuneCP5_13TeV-powheg-pythia8/AODSIM/102X_upgrade2018_realistic_v11-v1/100000/BE7A57A3-ABB6-0840-B685-EB030FFD12FB.root'
p890
aS'/store/mc/RunIIFall18DRPremix/DYToEE_M-50_NNPDF31_TuneCP5_13TeV-powheg-pythia8/AODSIM/102X_upgrade2018_realistic_v11-v1/100000/303469A1-A775-454C-ADDA-12733841C80D.root'
p891
aS'/store/mc/RunIIFall18DRPremix/DYToEE_M-50_NNPDF31_TuneCP5_13TeV-powheg-pythia8/AODSIM/102X_upgrade2018_realistic_v11-v1/100000/07252E6F-1C42-AC42-8CF1-04FCBA3EB707.root'
p892
aS'/store/mc/RunIIFall18DRPremix/DYToEE_M-50_NNPDF31_TuneCP5_13TeV-powheg-pythia8/AODSIM/102X_upgrade2018_realistic_v11-v1/100000/279C8543-3BE8-5E4E-A07E-DC7D78B5BDC8.root'
p893
aS'/store/mc/RunIIFall18DRPremix/DYToEE_M-50_NNPDF31_TuneCP5_13TeV-powheg-pythia8/AODSIM/102X_upgrade2018_realistic_v11-v1/100000/67D0FE3B-E071-B64D-AEDA-0F821D45607A.root'
p894
aS'/store/mc/RunIIFall18DRPremix/DYToEE_M-50_NNPDF31_TuneCP5_13TeV-powheg-pythia8/AODSIM/102X_upgrade2018_realistic_v11-v1/100000/1570FFA4-8C4D-3B4D-A95D-CD5821D054C2.root'
p895
aS'/store/mc/RunIIFall18DRPremix/DYToEE_M-50_NNPDF31_TuneCP5_13TeV-powheg-pythia8/AODSIM/102X_upgrade2018_realistic_v11-v1/100000/E2A92288-751E-D744-BE27-6B413F02A68D.root'
p896
aS'/store/mc/RunIIFall18DRPremix/DYToEE_M-50_NNPDF31_TuneCP5_13TeV-powheg-pythia8/AODSIM/102X_upgrade2018_realistic_v11-v1/100000/79B0520E-2DB3-E349-AE95-A5AAEC1D4749.root'
p897
aS'/store/mc/RunIIFall18DRPremix/DYToEE_M-50_NNPDF31_TuneCP5_13TeV-powheg-pythia8/AODSIM/102X_upgrade2018_realistic_v11-v1/100000/F5944590-825A-9241-AF44-FCC848692AE4.root'
p898
aS'/store/mc/RunIIFall18DRPremix/DYToEE_M-50_NNPDF31_TuneCP5_13TeV-powheg-pythia8/AODSIM/102X_upgrade2018_realistic_v11-v1/100000/9FEFC5D8-37C1-1647-9C2B-AA399FE6DEE2.root'
p899
aS'/store/mc/RunIIFall18DRPremix/DYToEE_M-50_NNPDF31_TuneCP5_13TeV-powheg-pythia8/AODSIM/102X_upgrade2018_realistic_v11-v1/100000/84A8D0CE-7EFA-C84C-8C8E-101F325864D9.root'
p900
aS'/store/mc/RunIIFall18DRPremix/DYToEE_M-50_NNPDF31_TuneCP5_13TeV-powheg-pythia8/AODSIM/102X_upgrade2018_realistic_v11-v1/100000/D191AC54-166D-1E40-8F1A-584D4DEFDE23.root'
p901
aS'/store/mc/RunIIFall18DRPremix/DYToEE_M-50_NNPDF31_TuneCP5_13TeV-powheg-pythia8/AODSIM/102X_upgrade2018_realistic_v11-v1/100000/12335410-6607-CD4E-8953-AE9C019AB3CA.root'
p902
aS'/store/mc/RunIIFall18DRPremix/DYToEE_M-50_NNPDF31_TuneCP5_13TeV-powheg-pythia8/AODSIM/102X_upgrade2018_realistic_v11-v1/100000/DBF91679-8C8E-9A41-B600-877CE7865436.root'
p903
aS'/store/mc/RunIIFall18DRPremix/DYToEE_M-50_NNPDF31_TuneCP5_13TeV-powheg-pythia8/AODSIM/102X_upgrade2018_realistic_v11-v1/100000/36412594-BB62-D147-8B64-F1560356CA5C.root'
p904
aS'/store/mc/RunIIFall18DRPremix/DYToEE_M-50_NNPDF31_TuneCP5_13TeV-powheg-pythia8/AODSIM/102X_upgrade2018_realistic_v11-v1/100000/6E21437D-07F7-7545-AD80-5361C20CEACB.root'
p905
aS'/store/mc/RunIIFall18DRPremix/DYToEE_M-50_NNPDF31_TuneCP5_13TeV-powheg-pythia8/AODSIM/102X_upgrade2018_realistic_v11-v1/100000/2680B368-87AD-264D-800E-671428E2E4FE.root'
p906
aS'/store/mc/RunIIFall18DRPremix/DYToEE_M-50_NNPDF31_TuneCP5_13TeV-powheg-pythia8/AODSIM/102X_upgrade2018_realistic_v11-v1/100000/EF0B9D2A-9125-6B40-BFC7-D0D5164DD642.root'
p907
aS'/store/mc/RunIIFall18DRPremix/DYToEE_M-50_NNPDF31_TuneCP5_13TeV-powheg-pythia8/AODSIM/102X_upgrade2018_realistic_v11-v1/100000/716D7E28-AF70-364B-A209-8301F473B5BD.root'
p908
aS'/store/mc/RunIIFall18DRPremix/DYToEE_M-50_NNPDF31_TuneCP5_13TeV-powheg-pythia8/AODSIM/102X_upgrade2018_realistic_v11-v1/100000/69516D83-F0AD-A347-A47C-0B7F773DB786.root'
p909
aS'/store/mc/RunIIFall18DRPremix/DYToEE_M-50_NNPDF31_TuneCP5_13TeV-powheg-pythia8/AODSIM/102X_upgrade2018_realistic_v11-v1/100000/36935D9C-B36F-C34E-A277-EA59783B8070.root'
p910
aS'/store/mc/RunIIFall18DRPremix/DYToEE_M-50_NNPDF31_TuneCP5_13TeV-powheg-pythia8/AODSIM/102X_upgrade2018_realistic_v11-v1/100000/A16720FC-1E25-5141-AD6A-1115A71DD12C.root'
p911
aS'/store/mc/RunIIFall18DRPremix/DYToEE_M-50_NNPDF31_TuneCP5_13TeV-powheg-pythia8/AODSIM/102X_upgrade2018_realistic_v11-v1/100000/A31DC244-74D1-DA4A-83C3-98F1C0C0C21B.root'
p912
aS'/store/mc/RunIIFall18DRPremix/DYToEE_M-50_NNPDF31_TuneCP5_13TeV-powheg-pythia8/AODSIM/102X_upgrade2018_realistic_v11-v1/100001/485C0018-88F8-4740-9AF7-3ECC8A3AC542.root'
p913
aS'/store/mc/RunIIFall18DRPremix/DYToEE_M-50_NNPDF31_TuneCP5_13TeV-powheg-pythia8/AODSIM/102X_upgrade2018_realistic_v11-v1/100000/8A4B6A01-0BC5-F84A-B09A-EB4174633AB5.root'
p914
aS'/store/mc/RunIIFall18DRPremix/DYToEE_M-50_NNPDF31_TuneCP5_13TeV-powheg-pythia8/AODSIM/102X_upgrade2018_realistic_v11-v1/100000/4F9F4F69-04D0-7948-BD45-5DC59B80BF22.root'
p915
aS'/store/mc/RunIIFall18DRPremix/DYToEE_M-50_NNPDF31_TuneCP5_13TeV-powheg-pythia8/AODSIM/102X_upgrade2018_realistic_v11-v1/100001/82B036F3-C2AC-2A43-8A12-C76FAEBDAD6D.root'
p916
aS'/store/mc/RunIIFall18DRPremix/DYToEE_M-50_NNPDF31_TuneCP5_13TeV-powheg-pythia8/AODSIM/102X_upgrade2018_realistic_v11-v1/100001/27ED1A72-6E17-8749-97C4-10E8032460CB.root'
p917
aS'/store/mc/RunIIFall18DRPremix/DYToEE_M-50_NNPDF31_TuneCP5_13TeV-powheg-pythia8/AODSIM/102X_upgrade2018_realistic_v11-v1/100001/567C3F3F-C9E7-4D4C-A5E7-9A00D47943F3.root'
p918
aS'/store/mc/RunIIFall18DRPremix/DYToEE_M-50_NNPDF31_TuneCP5_13TeV-powheg-pythia8/AODSIM/102X_upgrade2018_realistic_v11-v1/100000/A258E979-FE8B-E940-854C-D4C12BB90A8A.root'
p919
aS'/store/mc/RunIIFall18DRPremix/DYToEE_M-50_NNPDF31_TuneCP5_13TeV-powheg-pythia8/AODSIM/102X_upgrade2018_realistic_v11-v1/100000/24C6C302-E76F-6344-BEF8-E6955FCC6356.root'
p920
aS'/store/mc/RunIIFall18DRPremix/DYToEE_M-50_NNPDF31_TuneCP5_13TeV-powheg-pythia8/AODSIM/102X_upgrade2018_realistic_v11-v1/100000/5966D3C4-289B-3048-89B9-41B0A2DCDBD3.root'
p921
aS'/store/mc/RunIIFall18DRPremix/DYToEE_M-50_NNPDF31_TuneCP5_13TeV-powheg-pythia8/AODSIM/102X_upgrade2018_realistic_v11-v1/100000/F72782B3-8A85-2A48-BA47-75970749F317.root'
p922
aS'/store/mc/RunIIFall18DRPremix/DYToEE_M-50_NNPDF31_TuneCP5_13TeV-powheg-pythia8/AODSIM/102X_upgrade2018_realistic_v11-v1/100000/02A0F62B-7AF0-D641-A14D-D31A49053C40.root'
p923
aS'/store/mc/RunIIFall18DRPremix/DYToEE_M-50_NNPDF31_TuneCP5_13TeV-powheg-pythia8/AODSIM/102X_upgrade2018_realistic_v11-v1/100000/F55D803D-1067-4E46-AEE0-854D123DEB87.root'
p924
aS'/store/mc/RunIIFall18DRPremix/DYToEE_M-50_NNPDF31_TuneCP5_13TeV-powheg-pythia8/AODSIM/102X_upgrade2018_realistic_v11-v1/100000/A81E2F6C-42F9-FA43-8DA2-10FEE88BFFEE.root'
p925
aS'/store/mc/RunIIFall18DRPremix/DYToEE_M-50_NNPDF31_TuneCP5_13TeV-powheg-pythia8/AODSIM/102X_upgrade2018_realistic_v11-v1/100000/B6377A3D-2AD3-2345-A5F1-808816EF2407.root'
p926
aS'/store/mc/RunIIFall18DRPremix/DYToEE_M-50_NNPDF31_TuneCP5_13TeV-powheg-pythia8/AODSIM/102X_upgrade2018_realistic_v11-v1/100000/24F1A9D5-1EFB-2B46-8B8A-AD22A373DA68.root'
p927
aS'/store/mc/RunIIFall18DRPremix/DYToEE_M-50_NNPDF31_TuneCP5_13TeV-powheg-pythia8/AODSIM/102X_upgrade2018_realistic_v11-v1/100000/9FD8E0C5-032E-D147-8FEB-D5E1FD85D897.root'
p928
aS'/store/mc/RunIIFall18DRPremix/DYToEE_M-50_NNPDF31_TuneCP5_13TeV-powheg-pythia8/AODSIM/102X_upgrade2018_realistic_v11-v1/100001/BEAF427A-0A03-F846-A6C6-491D6700C3FD.root'
p929
aS'/store/mc/RunIIFall18DRPremix/DYToEE_M-50_NNPDF31_TuneCP5_13TeV-powheg-pythia8/AODSIM/102X_upgrade2018_realistic_v11-v1/100000/A6968B78-B07F-B647-A235-06D6595FE8B8.root'
p930
aS'/store/mc/RunIIFall18DRPremix/DYToEE_M-50_NNPDF31_TuneCP5_13TeV-powheg-pythia8/AODSIM/102X_upgrade2018_realistic_v11-v1/100000/8ED37E4D-8772-DB49-BAD6-31FCABAE2D12.root'
p931
aS'/store/mc/RunIIFall18DRPremix/DYToEE_M-50_NNPDF31_TuneCP5_13TeV-powheg-pythia8/AODSIM/102X_upgrade2018_realistic_v11-v1/100000/52466E34-87A5-D840-B480-F2349D7B652C.root'
p932
aS'/store/mc/RunIIFall18DRPremix/DYToEE_M-50_NNPDF31_TuneCP5_13TeV-powheg-pythia8/AODSIM/102X_upgrade2018_realistic_v11-v1/100000/D3025088-D299-124E-95AD-23B07182B403.root'
p933
aS'/store/mc/RunIIFall18DRPremix/DYToEE_M-50_NNPDF31_TuneCP5_13TeV-powheg-pythia8/AODSIM/102X_upgrade2018_realistic_v11-v1/100000/566D1762-B7BA-7D41-8913-F38B1DC39769.root'
p934
aS'/store/mc/RunIIFall18DRPremix/DYToEE_M-50_NNPDF31_TuneCP5_13TeV-powheg-pythia8/AODSIM/102X_upgrade2018_realistic_v11-v1/100000/AF592E70-7BD2-9942-8ACA-09A7CF715AB8.root'
p935
aS'/store/mc/RunIIFall18DRPremix/DYToEE_M-50_NNPDF31_TuneCP5_13TeV-powheg-pythia8/AODSIM/102X_upgrade2018_realistic_v11-v1/100000/92803B33-C7A5-4F40-832F-4630AB8277D5.root'
p936
aS'/store/mc/RunIIFall18DRPremix/DYToEE_M-50_NNPDF31_TuneCP5_13TeV-powheg-pythia8/AODSIM/102X_upgrade2018_realistic_v11-v1/100000/801BCEE3-073D-334E-AFA4-484EA680C7E6.root'
p937
aS'/store/mc/RunIIFall18DRPremix/DYToEE_M-50_NNPDF31_TuneCP5_13TeV-powheg-pythia8/AODSIM/102X_upgrade2018_realistic_v11-v1/100001/4F9E1086-4731-6D44-92B1-64260C1BAC28.root'
p938
aS'/store/mc/RunIIFall18DRPremix/DYToEE_M-50_NNPDF31_TuneCP5_13TeV-powheg-pythia8/AODSIM/102X_upgrade2018_realistic_v11-v1/100001/F9807A14-D078-B04E-9383-783724DC30E5.root'
p939
aS'/store/mc/RunIIFall18DRPremix/DYToEE_M-50_NNPDF31_TuneCP5_13TeV-powheg-pythia8/AODSIM/102X_upgrade2018_realistic_v11-v1/100000/81975FD1-F2A8-2B4E-8681-31795E7423BD.root'
p940
aS'/store/mc/RunIIFall18DRPremix/DYToEE_M-50_NNPDF31_TuneCP5_13TeV-powheg-pythia8/AODSIM/102X_upgrade2018_realistic_v11-v1/100000/5266A16B-E4B9-0743-B36E-7F7A0DB9116A.root'
p941
aS'/store/mc/RunIIFall18DRPremix/DYToEE_M-50_NNPDF31_TuneCP5_13TeV-powheg-pythia8/AODSIM/102X_upgrade2018_realistic_v11-v1/100001/F292B98F-0048-6241-B33C-23FA5E7D4649.root'
p942
aS'/store/mc/RunIIFall18DRPremix/DYToEE_M-50_NNPDF31_TuneCP5_13TeV-powheg-pythia8/AODSIM/102X_upgrade2018_realistic_v11-v1/100000/73B1E3E8-E5A4-254A-A3BC-A65F017699D6.root'
p943
aS'/store/mc/RunIIFall18DRPremix/DYToEE_M-50_NNPDF31_TuneCP5_13TeV-powheg-pythia8/AODSIM/102X_upgrade2018_realistic_v11-v1/100001/B82AA04F-EFA1-5041-8372-9A9DB1C547A5.root'
p944
aS'/store/mc/RunIIFall18DRPremix/DYToEE_M-50_NNPDF31_TuneCP5_13TeV-powheg-pythia8/AODSIM/102X_upgrade2018_realistic_v11-v1/100001/7D3F1580-E41E-F344-A278-B9100FF6642A.root'
p945
aS'/store/mc/RunIIFall18DRPremix/DYToEE_M-50_NNPDF31_TuneCP5_13TeV-powheg-pythia8/AODSIM/102X_upgrade2018_realistic_v11-v1/100000/EBFE3A37-DC03-8E48-AFD7-C8E8BBFFED81.root'
p946
aS'/store/mc/RunIIFall18DRPremix/DYToEE_M-50_NNPDF31_TuneCP5_13TeV-powheg-pythia8/AODSIM/102X_upgrade2018_realistic_v11-v1/100000/D344DF1D-ACD1-A843-8A62-DE138B300BE8.root'
p947
aS'/store/mc/RunIIFall18DRPremix/DYToEE_M-50_NNPDF31_TuneCP5_13TeV-powheg-pythia8/AODSIM/102X_upgrade2018_realistic_v11-v1/100001/A5348154-A7F5-F744-9570-AC3A5D403E52.root'
p948
aS'/store/mc/RunIIFall18DRPremix/DYToEE_M-50_NNPDF31_TuneCP5_13TeV-powheg-pythia8/AODSIM/102X_upgrade2018_realistic_v11-v1/100001/46900ADE-600E-E340-9E33-9B0FB665C5D8.root'
p949
aS'/store/mc/RunIIFall18DRPremix/DYToEE_M-50_NNPDF31_TuneCP5_13TeV-powheg-pythia8/AODSIM/102X_upgrade2018_realistic_v11-v1/100001/30EC0C43-36AC-2A45-A32C-ACBE69C226E0.root'
p950
aS'/store/mc/RunIIFall18DRPremix/DYToEE_M-50_NNPDF31_TuneCP5_13TeV-powheg-pythia8/AODSIM/102X_upgrade2018_realistic_v11-v1/100001/DA6510BC-34D9-2B47-9F5E-BC4188D4B734.root'
p951
aS'/store/mc/RunIIFall18DRPremix/DYToEE_M-50_NNPDF31_TuneCP5_13TeV-powheg-pythia8/AODSIM/102X_upgrade2018_realistic_v11-v1/100001/08A1DE9B-8E81-C747-B28F-080034C53D2C.root'
p952
aS'/store/mc/RunIIFall18DRPremix/DYToEE_M-50_NNPDF31_TuneCP5_13TeV-powheg-pythia8/AODSIM/102X_upgrade2018_realistic_v11-v1/100000/7B789283-2321-874C-BB79-CB65E000A530.root'
p953
aS'/store/mc/RunIIFall18DRPremix/DYToEE_M-50_NNPDF31_TuneCP5_13TeV-powheg-pythia8/AODSIM/102X_upgrade2018_realistic_v11-v1/100001/6A33C909-6301-344B-BC85-8EBEBB314B11.root'
p954
aS'/store/mc/RunIIFall18DRPremix/DYToEE_M-50_NNPDF31_TuneCP5_13TeV-powheg-pythia8/AODSIM/102X_upgrade2018_realistic_v11-v1/100001/3C24642A-A635-2849-9B19-D927F83BE9F2.root'
p955
aS'/store/mc/RunIIFall18DRPremix/DYToEE_M-50_NNPDF31_TuneCP5_13TeV-powheg-pythia8/AODSIM/102X_upgrade2018_realistic_v11-v1/100001/975AF998-5504-094D-9A7C-45CC98CBB1CA.root'
p956
aS'/store/mc/RunIIFall18DRPremix/DYToEE_M-50_NNPDF31_TuneCP5_13TeV-powheg-pythia8/AODSIM/102X_upgrade2018_realistic_v11-v1/100001/B02A5155-B1F0-4944-9823-051538D84920.root'
p957
aS'/store/mc/RunIIFall18DRPremix/DYToEE_M-50_NNPDF31_TuneCP5_13TeV-powheg-pythia8/AODSIM/102X_upgrade2018_realistic_v11-v1/100001/375C9D24-06F2-5945-B875-91313DA44DDE.root'
p958
aS'/store/mc/RunIIFall18DRPremix/DYToEE_M-50_NNPDF31_TuneCP5_13TeV-powheg-pythia8/AODSIM/102X_upgrade2018_realistic_v11-v1/100001/00E89D82-E814-4D4E-9BD5-C0E098471E7B.root'
p959
aS'/store/mc/RunIIFall18DRPremix/DYToEE_M-50_NNPDF31_TuneCP5_13TeV-powheg-pythia8/AODSIM/102X_upgrade2018_realistic_v11-v1/100001/6030FC55-9B35-6341-9240-D2F58CF67E37.root'
p960
aS'/store/mc/RunIIFall18DRPremix/DYToEE_M-50_NNPDF31_TuneCP5_13TeV-powheg-pythia8/AODSIM/102X_upgrade2018_realistic_v11-v1/100001/3AB9EAFF-E596-8348-9A96-0DC0AE18D6FB.root'
p961
aS'/store/mc/RunIIFall18DRPremix/DYToEE_M-50_NNPDF31_TuneCP5_13TeV-powheg-pythia8/AODSIM/102X_upgrade2018_realistic_v11-v1/100001/C2004D78-EF44-B048-B97E-6EB5E7E42753.root'
p962
aS'/store/mc/RunIIFall18DRPremix/DYToEE_M-50_NNPDF31_TuneCP5_13TeV-powheg-pythia8/AODSIM/102X_upgrade2018_realistic_v11-v1/100001/BB7795CF-918A-D749-98D4-40FB0CDECF5A.root'
p963
aS'/store/mc/RunIIFall18DRPremix/DYToEE_M-50_NNPDF31_TuneCP5_13TeV-powheg-pythia8/AODSIM/102X_upgrade2018_realistic_v11-v1/100001/7E112172-2160-5C45-A445-FBE14D20FA43.root'
p964
aS'/store/mc/RunIIFall18DRPremix/DYToEE_M-50_NNPDF31_TuneCP5_13TeV-powheg-pythia8/AODSIM/102X_upgrade2018_realistic_v11-v1/100001/EF51FD7B-CDEB-C945-B05F-9B62B136A1A0.root'
p965
aS'/store/mc/RunIIFall18DRPremix/DYToEE_M-50_NNPDF31_TuneCP5_13TeV-powheg-pythia8/AODSIM/102X_upgrade2018_realistic_v11-v1/100001/449FFF9D-056C-B444-A6E3-55CD2E719E9D.root'
p966
aS'/store/mc/RunIIFall18DRPremix/DYToEE_M-50_NNPDF31_TuneCP5_13TeV-powheg-pythia8/AODSIM/102X_upgrade2018_realistic_v11-v1/100001/7C376EFE-D35B-5A4B-93A2-DB0B94A6F8E6.root'
p967
aS'/store/mc/RunIIFall18DRPremix/DYToEE_M-50_NNPDF31_TuneCP5_13TeV-powheg-pythia8/AODSIM/102X_upgrade2018_realistic_v11-v1/100001/478B30DA-C5E1-9F45-ABAD-C66BAB4E4AEB.root'
p968
aS'/store/mc/RunIIFall18DRPremix/DYToEE_M-50_NNPDF31_TuneCP5_13TeV-powheg-pythia8/AODSIM/102X_upgrade2018_realistic_v11-v1/100000/A3624782-7027-2E4F-B2E4-D70FE5B38AED.root'
p969
aS'/store/mc/RunIIFall18DRPremix/DYToEE_M-50_NNPDF31_TuneCP5_13TeV-powheg-pythia8/AODSIM/102X_upgrade2018_realistic_v11-v1/100001/395A85C1-5411-D34F-9C2F-E3D3E0DEB3BB.root'
p970
aS'/store/mc/RunIIFall18DRPremix/DYToEE_M-50_NNPDF31_TuneCP5_13TeV-powheg-pythia8/AODSIM/102X_upgrade2018_realistic_v11-v1/100001/E4E5498A-4F5F-3D45-8C19-0F21F6CD127F.root'
p971
aS'/store/mc/RunIIFall18DRPremix/DYToEE_M-50_NNPDF31_TuneCP5_13TeV-powheg-pythia8/AODSIM/102X_upgrade2018_realistic_v11-v1/100001/93A7CAFC-0190-9347-9647-28F14DEA50CC.root'
p972
aS'/store/mc/RunIIFall18DRPremix/DYToEE_M-50_NNPDF31_TuneCP5_13TeV-powheg-pythia8/AODSIM/102X_upgrade2018_realistic_v11-v1/100001/539B4043-57EA-684D-9D97-F085B2FC76CD.root'
p973
aS'/store/mc/RunIIFall18DRPremix/DYToEE_M-50_NNPDF31_TuneCP5_13TeV-powheg-pythia8/AODSIM/102X_upgrade2018_realistic_v11-v1/100000/705C9B78-C5C1-4348-BFAA-17E7E29FCE44.root'
p974
aS'/store/mc/RunIIFall18DRPremix/DYToEE_M-50_NNPDF31_TuneCP5_13TeV-powheg-pythia8/AODSIM/102X_upgrade2018_realistic_v11-v1/100000/402A4564-6C63-004A-A7CD-D8DCEDB453C7.root'
p975
aS'/store/mc/RunIIFall18DRPremix/DYToEE_M-50_NNPDF31_TuneCP5_13TeV-powheg-pythia8/AODSIM/102X_upgrade2018_realistic_v11-v1/100000/EAAAAA8B-DFB2-854B-A7DA-9415B93DE09D.root'
p976
aS'/store/mc/RunIIFall18DRPremix/DYToEE_M-50_NNPDF31_TuneCP5_13TeV-powheg-pythia8/AODSIM/102X_upgrade2018_realistic_v11-v1/100000/AF13351D-EBD8-434A-B50D-7373B7A01750.root'
p977
aS'/store/mc/RunIIFall18DRPremix/DYToEE_M-50_NNPDF31_TuneCP5_13TeV-powheg-pythia8/AODSIM/102X_upgrade2018_realistic_v11-v1/100000/2915F90F-2CF8-694C-BE5B-7C81687A6B68.root'
p978
aS'/store/mc/RunIIFall18DRPremix/DYToEE_M-50_NNPDF31_TuneCP5_13TeV-powheg-pythia8/AODSIM/102X_upgrade2018_realistic_v11-v1/100000/D0BE65DC-A398-1840-94D2-638D6A0D530E.root'
p979
aS'/store/mc/RunIIFall18DRPremix/DYToEE_M-50_NNPDF31_TuneCP5_13TeV-powheg-pythia8/AODSIM/102X_upgrade2018_realistic_v11-v1/100000/89E1CBB9-84E6-9E48-B5CA-D853A311C91E.root'
p980
aS'/store/mc/RunIIFall18DRPremix/DYToEE_M-50_NNPDF31_TuneCP5_13TeV-powheg-pythia8/AODSIM/102X_upgrade2018_realistic_v11-v1/100000/404875A1-B1F4-B140-BBCB-74C2BADB88EF.root'
p981
aS'/store/mc/RunIIFall18DRPremix/DYToEE_M-50_NNPDF31_TuneCP5_13TeV-powheg-pythia8/AODSIM/102X_upgrade2018_realistic_v11-v1/100000/AB2BF61C-1AA7-754C-87C4-F2BBF1E61910.root'
p982
aS'/store/mc/RunIIFall18DRPremix/DYToEE_M-50_NNPDF31_TuneCP5_13TeV-powheg-pythia8/AODSIM/102X_upgrade2018_realistic_v11-v1/100000/ED63417E-698F-2D4C-AF6D-10A73877C40E.root'
p983
aS'/store/mc/RunIIFall18DRPremix/DYToEE_M-50_NNPDF31_TuneCP5_13TeV-powheg-pythia8/AODSIM/102X_upgrade2018_realistic_v11-v1/100000/B6F5075B-66A0-9A44-99CE-5C275DA097C2.root'
p984
aS'/store/mc/RunIIFall18DRPremix/DYToEE_M-50_NNPDF31_TuneCP5_13TeV-powheg-pythia8/AODSIM/102X_upgrade2018_realistic_v11-v1/100000/021E36EC-1291-2640-9582-1A23DC28C6AA.root'
p985
aS'/store/mc/RunIIFall18DRPremix/DYToEE_M-50_NNPDF31_TuneCP5_13TeV-powheg-pythia8/AODSIM/102X_upgrade2018_realistic_v11-v1/100000/9F515E95-40AE-7C48-A6AF-3027B9B517ED.root'
p986
aS'/store/mc/RunIIFall18DRPremix/DYToEE_M-50_NNPDF31_TuneCP5_13TeV-powheg-pythia8/AODSIM/102X_upgrade2018_realistic_v11-v1/100000/BDD29CA6-3104-F344-87D9-0A581AFAF440.root'
p987
aS'/store/mc/RunIIFall18DRPremix/DYToEE_M-50_NNPDF31_TuneCP5_13TeV-powheg-pythia8/AODSIM/102X_upgrade2018_realistic_v11-v1/100000/E1641E48-1032-3540-881B-E051B35DFAC4.root'
p988
aS'/store/mc/RunIIFall18DRPremix/DYToEE_M-50_NNPDF31_TuneCP5_13TeV-powheg-pythia8/AODSIM/102X_upgrade2018_realistic_v11-v1/100000/6F5DDB52-D864-0B4B-B22E-D263B2201771.root'
p989
aS'/store/mc/RunIIFall18DRPremix/DYToEE_M-50_NNPDF31_TuneCP5_13TeV-powheg-pythia8/AODSIM/102X_upgrade2018_realistic_v11-v1/100000/2AC7F950-9FCE-C241-B712-476A761501B2.root'
p990
aS'/store/mc/RunIIFall18DRPremix/DYToEE_M-50_NNPDF31_TuneCP5_13TeV-powheg-pythia8/AODSIM/102X_upgrade2018_realistic_v11-v1/100000/641D4968-21CD-0F44-AF83-CCE520F2AAE1.root'
p991
aS'/store/mc/RunIIFall18DRPremix/DYToEE_M-50_NNPDF31_TuneCP5_13TeV-powheg-pythia8/AODSIM/102X_upgrade2018_realistic_v11-v1/100000/5FA6B7F0-9321-F742-BEA2-3E404BC7C1F8.root'
p992
aS'/store/mc/RunIIFall18DRPremix/DYToEE_M-50_NNPDF31_TuneCP5_13TeV-powheg-pythia8/AODSIM/102X_upgrade2018_realistic_v11-v1/100000/61C86C75-8A26-BA42-994D-633C0727A57A.root'
p993
aS'/store/mc/RunIIFall18DRPremix/DYToEE_M-50_NNPDF31_TuneCP5_13TeV-powheg-pythia8/AODSIM/102X_upgrade2018_realistic_v11-v1/100000/19AD53E0-9339-8649-9200-A9A987CD8772.root'
p994
aS'/store/mc/RunIIFall18DRPremix/DYToEE_M-50_NNPDF31_TuneCP5_13TeV-powheg-pythia8/AODSIM/102X_upgrade2018_realistic_v11-v1/100000/94AE863D-55D7-2548-AB42-B353B244A72D.root'
p995
aS'/store/mc/RunIIFall18DRPremix/DYToEE_M-50_NNPDF31_TuneCP5_13TeV-powheg-pythia8/AODSIM/102X_upgrade2018_realistic_v11-v1/100000/398231BF-8C4B-E24D-9ECC-282451DAD5E9.root'
p996
aS'/store/mc/RunIIFall18DRPremix/DYToEE_M-50_NNPDF31_TuneCP5_13TeV-powheg-pythia8/AODSIM/102X_upgrade2018_realistic_v11-v1/100000/6B6D7DA0-09C7-B740-AECE-7B0CB3A52BB8.root'
p997
aS'/store/mc/RunIIFall18DRPremix/DYToEE_M-50_NNPDF31_TuneCP5_13TeV-powheg-pythia8/AODSIM/102X_upgrade2018_realistic_v11-v1/100000/9B85732A-3824-8D47-98C0-EB68BA31A132.root'
p998
aS'/store/mc/RunIIFall18DRPremix/DYToEE_M-50_NNPDF31_TuneCP5_13TeV-powheg-pythia8/AODSIM/102X_upgrade2018_realistic_v11-v1/100000/0FB36597-21D7-3E4D-9F01-6C532B3F2A59.root'
p999
aS'/store/mc/RunIIFall18DRPremix/DYToEE_M-50_NNPDF31_TuneCP5_13TeV-powheg-pythia8/AODSIM/102X_upgrade2018_realistic_v11-v1/100000/35720C99-5743-8241-93DD-DA6C02799310.root'
p1000
aS'/store/mc/RunIIFall18DRPremix/DYToEE_M-50_NNPDF31_TuneCP5_13TeV-powheg-pythia8/AODSIM/102X_upgrade2018_realistic_v11-v1/100000/3F9AA823-E1AA-0147-B10A-075AC8009AE7.root'
p1001
aS'/store/mc/RunIIFall18DRPremix/DYToEE_M-50_NNPDF31_TuneCP5_13TeV-powheg-pythia8/AODSIM/102X_upgrade2018_realistic_v11-v1/100001/20C3F7F1-923D-8546-BB0B-CAB571269614.root'
p1002
aS'/store/mc/RunIIFall18DRPremix/DYToEE_M-50_NNPDF31_TuneCP5_13TeV-powheg-pythia8/AODSIM/102X_upgrade2018_realistic_v11-v1/100000/3CB1F7EE-DDFA-0542-8761-395B29336904.root'
p1003
aS'/store/mc/RunIIFall18DRPremix/DYToEE_M-50_NNPDF31_TuneCP5_13TeV-powheg-pythia8/AODSIM/102X_upgrade2018_realistic_v11-v1/100000/4C11206C-F69D-C643-830A-E38CA8DADE3E.root'
p1004
aS'/store/mc/RunIIFall18DRPremix/DYToEE_M-50_NNPDF31_TuneCP5_13TeV-powheg-pythia8/AODSIM/102X_upgrade2018_realistic_v11-v1/100001/D547C6E1-7DE8-BF44-9E8F-CAD5E0A043D8.root'
p1005
aS'/store/mc/RunIIFall18DRPremix/DYToEE_M-50_NNPDF31_TuneCP5_13TeV-powheg-pythia8/AODSIM/102X_upgrade2018_realistic_v11-v1/100000/0DA7F9B7-B0A7-4D40-BDE7-432966115B1C.root'
p1006
aS'/store/mc/RunIIFall18DRPremix/DYToEE_M-50_NNPDF31_TuneCP5_13TeV-powheg-pythia8/AODSIM/102X_upgrade2018_realistic_v11-v1/100001/A2409830-17DB-4140-A14A-0BD09B3E2023.root'
p1007
aS'/store/mc/RunIIFall18DRPremix/DYToEE_M-50_NNPDF31_TuneCP5_13TeV-powheg-pythia8/AODSIM/102X_upgrade2018_realistic_v11-v1/100001/EE5FC4BA-B649-6C4E-8002-6BEF1EFF111E.root'
p1008
aS'/store/mc/RunIIFall18DRPremix/DYToEE_M-50_NNPDF31_TuneCP5_13TeV-powheg-pythia8/AODSIM/102X_upgrade2018_realistic_v11-v1/100000/0F643386-810D-1845-B8BF-5D736C910BC4.root'
p1009
aS'/store/mc/RunIIFall18DRPremix/DYToEE_M-50_NNPDF31_TuneCP5_13TeV-powheg-pythia8/AODSIM/102X_upgrade2018_realistic_v11-v1/100000/13CB1B29-85EB-C149-8122-0FCB4895EF28.root'
p1010
aS'/store/mc/RunIIFall18DRPremix/DYToEE_M-50_NNPDF31_TuneCP5_13TeV-powheg-pythia8/AODSIM/102X_upgrade2018_realistic_v11-v1/100000/C2CF47EC-3277-9A46-B7EE-AB4C7A494B52.root'
p1011
aS'/store/mc/RunIIFall18DRPremix/DYToEE_M-50_NNPDF31_TuneCP5_13TeV-powheg-pythia8/AODSIM/102X_upgrade2018_realistic_v11-v1/100000/8FAA75DC-A448-E547-B225-928BC2E5B6E3.root'
p1012
aS'/store/mc/RunIIFall18DRPremix/DYToEE_M-50_NNPDF31_TuneCP5_13TeV-powheg-pythia8/AODSIM/102X_upgrade2018_realistic_v11-v1/100000/C4284771-3A87-6C4D-9B66-6518B649D970.root'
p1013
aS'/store/mc/RunIIFall18DRPremix/DYToEE_M-50_NNPDF31_TuneCP5_13TeV-powheg-pythia8/AODSIM/102X_upgrade2018_realistic_v11-v1/100000/1EBC58CC-7268-6F4A-AE7A-3ECDFD5D3A87.root'
p1014
aS'/store/mc/RunIIFall18DRPremix/DYToEE_M-50_NNPDF31_TuneCP5_13TeV-powheg-pythia8/AODSIM/102X_upgrade2018_realistic_v11-v1/100000/C5C19B04-CBAC-1645-ACD4-D699DD6B4F25.root'
p1015
aS'/store/mc/RunIIFall18DRPremix/DYToEE_M-50_NNPDF31_TuneCP5_13TeV-powheg-pythia8/AODSIM/102X_upgrade2018_realistic_v11-v1/100000/A526BC4F-F2F7-BB4E-9E33-F2A27255D175.root'
p1016
aS'/store/mc/RunIIFall18DRPremix/DYToEE_M-50_NNPDF31_TuneCP5_13TeV-powheg-pythia8/AODSIM/102X_upgrade2018_realistic_v11-v1/100000/C5303518-BFD4-D24C-AB81-7F201DFF85C0.root'
p1017
aS'/store/mc/RunIIFall18DRPremix/DYToEE_M-50_NNPDF31_TuneCP5_13TeV-powheg-pythia8/AODSIM/102X_upgrade2018_realistic_v11-v1/100000/B8DCCBEB-C170-E243-A264-A903D31B3F71.root'
p1018
aS'/store/mc/RunIIFall18DRPremix/DYToEE_M-50_NNPDF31_TuneCP5_13TeV-powheg-pythia8/AODSIM/102X_upgrade2018_realistic_v11-v1/100000/832B9259-DB1D-364C-9933-5BA7B2A080CB.root'
p1019
aS'/store/mc/RunIIFall18DRPremix/DYToEE_M-50_NNPDF31_TuneCP5_13TeV-powheg-pythia8/AODSIM/102X_upgrade2018_realistic_v11-v1/100000/3BC9C511-2541-FA47-8481-DA127186739F.root'
p1020
aS'/store/mc/RunIIFall18DRPremix/DYToEE_M-50_NNPDF31_TuneCP5_13TeV-powheg-pythia8/AODSIM/102X_upgrade2018_realistic_v11-v1/100000/90F4A247-A679-8145-9FA4-DE7F7EE25479.root'
p1021
aS'/store/mc/RunIIFall18DRPremix/DYToEE_M-50_NNPDF31_TuneCP5_13TeV-powheg-pythia8/AODSIM/102X_upgrade2018_realistic_v11-v1/100000/B1A324DD-4099-1741-9152-3F651A84F700.root'
p1022
aS'/store/mc/RunIIFall18DRPremix/DYToEE_M-50_NNPDF31_TuneCP5_13TeV-powheg-pythia8/AODSIM/102X_upgrade2018_realistic_v11-v1/100001/8EEEAD33-F34A-CA4D-95C1-2906DB2CAA13.root'
p1023
aS'/store/mc/RunIIFall18DRPremix/DYToEE_M-50_NNPDF31_TuneCP5_13TeV-powheg-pythia8/AODSIM/102X_upgrade2018_realistic_v11-v1/100000/36464311-C460-494B-A41B-D5644D2FDF70.root'
p1024
aS'/store/mc/RunIIFall18DRPremix/DYToEE_M-50_NNPDF31_TuneCP5_13TeV-powheg-pythia8/AODSIM/102X_upgrade2018_realistic_v11-v1/100001/666B7D37-F9EF-FC4E-A5CF-730288206690.root'
p1025
aS'/store/mc/RunIIFall18DRPremix/DYToEE_M-50_NNPDF31_TuneCP5_13TeV-powheg-pythia8/AODSIM/102X_upgrade2018_realistic_v11-v1/100001/F4E0BFBE-D0F5-104F-91A9-622B655FA6C7.root'
p1026
aS'/store/mc/RunIIFall18DRPremix/DYToEE_M-50_NNPDF31_TuneCP5_13TeV-powheg-pythia8/AODSIM/102X_upgrade2018_realistic_v11-v1/100000/108EA2FF-126D-494F-AFBD-5243284F8163.root'
p1027
aS'/store/mc/RunIIFall18DRPremix/DYToEE_M-50_NNPDF31_TuneCP5_13TeV-powheg-pythia8/AODSIM/102X_upgrade2018_realistic_v11-v1/100001/46530649-B331-AF40-BC30-ED90E938476D.root'
p1028
aS'/store/mc/RunIIFall18DRPremix/DYToEE_M-50_NNPDF31_TuneCP5_13TeV-powheg-pythia8/AODSIM/102X_upgrade2018_realistic_v11-v1/100001/28DA7186-26F7-4949-B33D-7329A984AE53.root'
p1029
aS'/store/mc/RunIIFall18DRPremix/DYToEE_M-50_NNPDF31_TuneCP5_13TeV-powheg-pythia8/AODSIM/102X_upgrade2018_realistic_v11-v1/100000/01AFA3E0-EA63-3C41-8603-8A961BEC0F7A.root'
p1030
aS'/store/mc/RunIIFall18DRPremix/DYToEE_M-50_NNPDF31_TuneCP5_13TeV-powheg-pythia8/AODSIM/102X_upgrade2018_realistic_v11-v1/100001/08715FBF-23CF-5444-8190-6AD7E02EB9CC.root'
p1031
aS'/store/mc/RunIIFall18DRPremix/DYToEE_M-50_NNPDF31_TuneCP5_13TeV-powheg-pythia8/AODSIM/102X_upgrade2018_realistic_v11-v1/100001/C07C4E1F-DE0E-AA46-9549-5B15EA8DB675.root'
p1032
aS'/store/mc/RunIIFall18DRPremix/DYToEE_M-50_NNPDF31_TuneCP5_13TeV-powheg-pythia8/AODSIM/102X_upgrade2018_realistic_v11-v1/100001/94E2B615-13EB-B94E-A6B2-80E346CF925D.root'
p1033
aS'/store/mc/RunIIFall18DRPremix/DYToEE_M-50_NNPDF31_TuneCP5_13TeV-powheg-pythia8/AODSIM/102X_upgrade2018_realistic_v11-v1/100001/0AA1C3B5-FC78-C543-838B-0B0D6CD7E69C.root'
p1034
aS'/store/mc/RunIIFall18DRPremix/DYToEE_M-50_NNPDF31_TuneCP5_13TeV-powheg-pythia8/AODSIM/102X_upgrade2018_realistic_v11-v1/100001/568CEC35-E366-E44D-BC06-0202BF7CC3F4.root'
p1035
aS'/store/mc/RunIIFall18DRPremix/DYToEE_M-50_NNPDF31_TuneCP5_13TeV-powheg-pythia8/AODSIM/102X_upgrade2018_realistic_v11-v1/100001/7A553F25-0ABE-1B4A-8D92-03A8AFF4AA6F.root'
p1036
aS'/store/mc/RunIIFall18DRPremix/DYToEE_M-50_NNPDF31_TuneCP5_13TeV-powheg-pythia8/AODSIM/102X_upgrade2018_realistic_v11-v1/100000/7DFFCA27-C548-0E45-9F26-AF8CA9B767A1.root'
p1037
aS'/store/mc/RunIIFall18DRPremix/DYToEE_M-50_NNPDF31_TuneCP5_13TeV-powheg-pythia8/AODSIM/102X_upgrade2018_realistic_v11-v1/100000/19685A43-3C58-CC4E-8784-8B442AB04467.root'
p1038
aS'/store/mc/RunIIFall18DRPremix/DYToEE_M-50_NNPDF31_TuneCP5_13TeV-powheg-pythia8/AODSIM/102X_upgrade2018_realistic_v11-v1/100000/E14876B3-568C-554F-9C35-3F3B5C42F428.root'
p1039
aS'/store/mc/RunIIFall18DRPremix/DYToEE_M-50_NNPDF31_TuneCP5_13TeV-powheg-pythia8/AODSIM/102X_upgrade2018_realistic_v11-v1/100000/CE9C6FA5-6E38-7D4B-A0C0-71E2FBAA7B50.root'
p1040
aS'/store/mc/RunIIFall18DRPremix/DYToEE_M-50_NNPDF31_TuneCP5_13TeV-powheg-pythia8/AODSIM/102X_upgrade2018_realistic_v11-v1/100000/AC742B7F-CC54-784E-B841-295DA993DF69.root'
p1041
aS'/store/mc/RunIIFall18DRPremix/DYToEE_M-50_NNPDF31_TuneCP5_13TeV-powheg-pythia8/AODSIM/102X_upgrade2018_realistic_v11-v1/100000/948EE792-8F3D-334A-8867-67617A0B5F97.root'
p1042
aS'/store/mc/RunIIFall18DRPremix/DYToEE_M-50_NNPDF31_TuneCP5_13TeV-powheg-pythia8/AODSIM/102X_upgrade2018_realistic_v11-v1/100000/B696B15A-675A-8C40-B289-342AA62EB930.root'
p1043
aS'/store/mc/RunIIFall18DRPremix/DYToEE_M-50_NNPDF31_TuneCP5_13TeV-powheg-pythia8/AODSIM/102X_upgrade2018_realistic_v11-v1/100000/90C2FBF1-B391-A54A-BFC8-21ADB9D1FDFA.root'
p1044
aS'/store/mc/RunIIFall18DRPremix/DYToEE_M-50_NNPDF31_TuneCP5_13TeV-powheg-pythia8/AODSIM/102X_upgrade2018_realistic_v11-v1/100000/E2D8DD15-EB67-EF44-BF8A-D980964D1DA9.root'
p1045
aS'/store/mc/RunIIFall18DRPremix/DYToEE_M-50_NNPDF31_TuneCP5_13TeV-powheg-pythia8/AODSIM/102X_upgrade2018_realistic_v11-v1/100000/940784DC-ACD2-8E40-864B-86FDABA79898.root'
p1046
aS'/store/mc/RunIIFall18DRPremix/DYToEE_M-50_NNPDF31_TuneCP5_13TeV-powheg-pythia8/AODSIM/102X_upgrade2018_realistic_v11-v1/100000/8DA5C3CB-E67F-DE49-84BA-2656754AB17E.root'
p1047
aS'/store/mc/RunIIFall18DRPremix/DYToEE_M-50_NNPDF31_TuneCP5_13TeV-powheg-pythia8/AODSIM/102X_upgrade2018_realistic_v11-v1/100000/F45151FA-796D-B244-A77B-91BB905366D1.root'
p1048
aS'/store/mc/RunIIFall18DRPremix/DYToEE_M-50_NNPDF31_TuneCP5_13TeV-powheg-pythia8/AODSIM/102X_upgrade2018_realistic_v11-v1/100000/207CFE27-3532-AF46-A90C-748AC1B289CC.root'
p1049
aS'/store/mc/RunIIFall18DRPremix/DYToEE_M-50_NNPDF31_TuneCP5_13TeV-powheg-pythia8/AODSIM/102X_upgrade2018_realistic_v11-v1/100000/953D9B57-6347-E745-A5AE-C0E392F5F933.root'
p1050
aS'/store/mc/RunIIFall18DRPremix/DYToEE_M-50_NNPDF31_TuneCP5_13TeV-powheg-pythia8/AODSIM/102X_upgrade2018_realistic_v11-v1/100000/4F39FDAD-88FC-D543-8CF9-E98EB18F5F7B.root'
p1051
aS'/store/mc/RunIIFall18DRPremix/DYToEE_M-50_NNPDF31_TuneCP5_13TeV-powheg-pythia8/AODSIM/102X_upgrade2018_realistic_v11-v1/100000/3F64632A-DF4A-234F-93C4-EF5907B3301B.root'
p1052
aS'/store/mc/RunIIFall18DRPremix/DYToEE_M-50_NNPDF31_TuneCP5_13TeV-powheg-pythia8/AODSIM/102X_upgrade2018_realistic_v11-v1/100000/64A9646E-A470-454A-AC6C-93BC9FD7C4B3.root'
p1053
aS'/store/mc/RunIIFall18DRPremix/DYToEE_M-50_NNPDF31_TuneCP5_13TeV-powheg-pythia8/AODSIM/102X_upgrade2018_realistic_v11-v1/100000/40A1BF7D-431E-2749-94A7-30647068E9F2.root'
p1054
aS'/store/mc/RunIIFall18DRPremix/DYToEE_M-50_NNPDF31_TuneCP5_13TeV-powheg-pythia8/AODSIM/102X_upgrade2018_realistic_v11-v1/100000/D8BCF344-9928-D443-92F4-005490CA1C45.root'
p1055
aS'/store/mc/RunIIFall18DRPremix/DYToEE_M-50_NNPDF31_TuneCP5_13TeV-powheg-pythia8/AODSIM/102X_upgrade2018_realistic_v11-v1/100000/69B453F9-7033-3542-9601-AAAF4231EE02.root'
p1056
aS'/store/mc/RunIIFall18DRPremix/DYToEE_M-50_NNPDF31_TuneCP5_13TeV-powheg-pythia8/AODSIM/102X_upgrade2018_realistic_v11-v1/100000/C2454DC9-6E76-5945-B371-87FA10BCAD54.root'
p1057
aS'/store/mc/RunIIFall18DRPremix/DYToEE_M-50_NNPDF31_TuneCP5_13TeV-powheg-pythia8/AODSIM/102X_upgrade2018_realistic_v11-v1/100000/D4C50593-A053-D641-9F34-BB6D206E55B0.root'
p1058
aS'/store/mc/RunIIFall18DRPremix/DYToEE_M-50_NNPDF31_TuneCP5_13TeV-powheg-pythia8/AODSIM/102X_upgrade2018_realistic_v11-v1/100000/28B1EA56-262C-4744-AD14-AB6A4954C3C8.root'
p1059
aS'/store/mc/RunIIFall18DRPremix/DYToEE_M-50_NNPDF31_TuneCP5_13TeV-powheg-pythia8/AODSIM/102X_upgrade2018_realistic_v11-v1/100000/F46CC51A-1597-CE4E-AAC9-8FBB8F62E86B.root'
p1060
aS'/store/mc/RunIIFall18DRPremix/DYToEE_M-50_NNPDF31_TuneCP5_13TeV-powheg-pythia8/AODSIM/102X_upgrade2018_realistic_v11-v1/100000/028560E5-5D40-C741-A67A-CDB8DA30F7CA.root'
p1061
aS'/store/mc/RunIIFall18DRPremix/DYToEE_M-50_NNPDF31_TuneCP5_13TeV-powheg-pythia8/AODSIM/102X_upgrade2018_realistic_v11-v1/100000/6AEE6900-9E5D-6943-8DC3-DC339A41576C.root'
p1062
aS'/store/mc/RunIIFall18DRPremix/DYToEE_M-50_NNPDF31_TuneCP5_13TeV-powheg-pythia8/AODSIM/102X_upgrade2018_realistic_v11-v1/100000/B2FB7E73-B072-C042-BCD5-98250968C85F.root'
p1063
aS'/store/mc/RunIIFall18DRPremix/DYToEE_M-50_NNPDF31_TuneCP5_13TeV-powheg-pythia8/AODSIM/102X_upgrade2018_realistic_v11-v1/100000/57A715F5-6C61-E946-9E76-02E815C657BB.root'
p1064
aS'/store/mc/RunIIFall18DRPremix/DYToEE_M-50_NNPDF31_TuneCP5_13TeV-powheg-pythia8/AODSIM/102X_upgrade2018_realistic_v11-v1/100000/D5EF8CA5-685E-7F4B-A657-50FA726B9A1A.root'
p1065
aS'/store/mc/RunIIFall18DRPremix/DYToEE_M-50_NNPDF31_TuneCP5_13TeV-powheg-pythia8/AODSIM/102X_upgrade2018_realistic_v11-v1/100000/CA1B85E0-410F-254C-A27A-47AD184B47AE.root'
p1066
aS'/store/mc/RunIIFall18DRPremix/DYToEE_M-50_NNPDF31_TuneCP5_13TeV-powheg-pythia8/AODSIM/102X_upgrade2018_realistic_v11-v1/100000/7FAAC246-51E5-BA49-997C-98298EB9B35A.root'
p1067
aS'/store/mc/RunIIFall18DRPremix/DYToEE_M-50_NNPDF31_TuneCP5_13TeV-powheg-pythia8/AODSIM/102X_upgrade2018_realistic_v11-v1/100000/CD6F3595-5C53-F048-B080-045E9755D84C.root'
p1068
aS'/store/mc/RunIIFall18DRPremix/DYToEE_M-50_NNPDF31_TuneCP5_13TeV-powheg-pythia8/AODSIM/102X_upgrade2018_realistic_v11-v1/100000/CFB46BDB-0E6B-1D4D-BEB4-871ECE7D448F.root'
p1069
aS'/store/mc/RunIIFall18DRPremix/DYToEE_M-50_NNPDF31_TuneCP5_13TeV-powheg-pythia8/AODSIM/102X_upgrade2018_realistic_v11-v1/100000/AFA96CCF-6B25-7443-B7E0-5FF32187F64C.root'
p1070
aS'/store/mc/RunIIFall18DRPremix/DYToEE_M-50_NNPDF31_TuneCP5_13TeV-powheg-pythia8/AODSIM/102X_upgrade2018_realistic_v11-v1/100000/18FCA5AD-47EB-B04A-812D-EE2129B3CEE3.root'
p1071
aS'/store/mc/RunIIFall18DRPremix/DYToEE_M-50_NNPDF31_TuneCP5_13TeV-powheg-pythia8/AODSIM/102X_upgrade2018_realistic_v11-v1/100000/B9C8D2C7-BD29-A849-979C-B5EABB70DFDA.root'
p1072
aS'/store/mc/RunIIFall18DRPremix/DYToEE_M-50_NNPDF31_TuneCP5_13TeV-powheg-pythia8/AODSIM/102X_upgrade2018_realistic_v11-v1/100000/9EA56245-9CAC-A244-8CD3-A846DD6961A7.root'
p1073
aS'/store/mc/RunIIFall18DRPremix/DYToEE_M-50_NNPDF31_TuneCP5_13TeV-powheg-pythia8/AODSIM/102X_upgrade2018_realistic_v11-v1/100000/E416F090-058F-9247-8954-BCDA43E94597.root'
p1074
aS'/store/mc/RunIIFall18DRPremix/DYToEE_M-50_NNPDF31_TuneCP5_13TeV-powheg-pythia8/AODSIM/102X_upgrade2018_realistic_v11-v1/100000/667EB36C-E5B4-2844-90D5-55BB234AD48C.root'
p1075
aS'/store/mc/RunIIFall18DRPremix/DYToEE_M-50_NNPDF31_TuneCP5_13TeV-powheg-pythia8/AODSIM/102X_upgrade2018_realistic_v11-v1/100000/7A9A9ABB-1B05-BA46-8488-8C6EE6787F6A.root'
p1076
aS'/store/mc/RunIIFall18DRPremix/DYToEE_M-50_NNPDF31_TuneCP5_13TeV-powheg-pythia8/AODSIM/102X_upgrade2018_realistic_v11-v1/100000/632AC35C-89CD-FB42-A66E-3964ECE3286C.root'
p1077
asg65
I00
sbsg29
g3
(g9
g5
NtRp1078
(dp1079
g12
I00
sS'pyCfgParams'
p1080
(lp1081
S'isMC=True'
p1082
aS'doEleID=True'
p1083
aS'doPhoID=True'
p1084
aS'doTrigger=True'
p1085
aS'doRECO=True'
p1086
aS'isAOD=True'
p1087
aS'GT=102X_upgrade2018_realistic_v12'
p1088
asg13
S''
sg14
g15
((lp1089
S'psetName'
p1090
aS'pluginName'
p1091
ag1080
aS'sendExternalFolder'
p1092
atRp1093
sg19
g29
sg20
(dp1094
sg1091
S'Analysis'
p1095
sg22
g15
((ltRp1096
sg1090
S'/afs/cern.ch/work/s/soffi/EGM-WORK/CMSSW-102502018DataTnP/src/EgammaAnalysis/TnPTreeProducer/python/TnPTreeProducer_cfg.py'
p1097
sg25
Nsg1092
I01
sbsbsS'voGroup'
p1098
S''
sS'Server'
p1099
S'cmsweb.cern.ch'
p1100
sS'instance'
p1101
S'prod'
p1102
sS'RequestName'
p1103
V180920_121636:soffi_crab_DYToEE_M-50_NNPDF31_TuneCP5_13TeV-powheg-pythia8-AOD
p1104
sS'voRole'
p1105
S'NULL'
p1106
sS'Port'
p1107
S''
s.