(dp1
S'OriginalConfig'
p2
ccopy_reg
_reconstructor
p3
(cWMCore.Configuration
Configuration
p4
c__builtin__
object
p5
NtRp6
(dp7
S'Site'
p8
g3
(cWMCore.Configuration
ConfigSection
p9
g5
NtRp10
(dp11
S'_internal_skipChecks'
p12
I00
sS'_internal_documentation'
p13
S''
sS'_internal_settings'
p14
c__builtin__
set
p15
((lp16
S'storageSite'
p17
atRp18
sS'_internal_name'
p19
g8
sS'_internal_docstrings'
p20
(dp21
sS'_internal_children'
p22
g15
((ltRp23
sg17
S'T2_CH_CERN'
p24
sS'_internal_parent_ref'
p25
NsbsS'_internal_sections'
p26
(lp27
S'General'
p28
aS'JobType'
p29
aS'Data'
p30
ag8
aS'User'
p31
aS'Debug'
p32
asg28
g3
(g9
g5
NtRp33
(dp34
S'workArea'
p35
S'crab_2018Data_1'
p36
sg12
I00
sg13
S''
sg14
g15
((lp37
g35
aS'transferLogs'
p38
aS'requestName'
p39
atRp40
sg19
g28
sg20
(dp41
sg22
g15
((ltRp42
sg39
S'DYToEE_M-50_NNPDF31_TuneCP5_13TeV-powheg-pythia8'
p43
sg25
Nsg38
I00
sbsS'_internal_webapps'
p44
(lp45
sg31
g3
(g9
g5
NtRp46
(dp47
g12
I00
sg13
S''
sg14
g15
((ltRp48
sg19
g31
sg20
(dp49
sg22
g15
((ltRp50
sg25
NsbsS'_internal_components'
p51
(lp52
sg32
g3
(g9
g5
NtRp53
(dp54
g12
I00
sg13
S''
sg14
g15
((ltRp55
sg19
g32
sg20
(dp56
sg22
g15
((ltRp57
sg25
Nsbsg30
g3
(g9
g5
NtRp58
(dp59
S'allowNonValidInputDataset'
p60
I01
sg12
I00
sS'splitting'
p61
S'FileBased'
p62
sS'unitsPerJob'
p63
I1
sg13
S''
sg14
g15
((lp64
g60
aS'publication'
p65
ag63
aS'userInputFiles'
p66
ag61
aS'inputDBS'
p67
aS'outLFNDirBase'
p68
atRp69
sg19
g30
sg67
S'global'
p70
sg20
(dp71
sg22
g15
((ltRp72
sg68
S'/store/group/phys_egamma/soffi/TnP/ntuples_20180920/2018Data_1/mc/'
p73
sg25
Nsg66
(lp74
S'/store/mc/RunIIFall18MiniAOD/DYToEE_M-50_NNPDF31_TuneCP5_13TeV-powheg-pythia8/MINIAODSIM/102X_upgrade2018_realistic_v12-v1/100000/BB3E1A91-A918-454B-8505-422B48871BFC.root'
p75
aS'/store/mc/RunIIFall18MiniAOD/DYToEE_M-50_NNPDF31_TuneCP5_13TeV-powheg-pythia8/MINIAODSIM/102X_upgrade2018_realistic_v12-v1/100000/8007568D-9D44-9040-8023-1BFA1B80EFDC.root'
p76
aS'/store/mc/RunIIFall18MiniAOD/DYToEE_M-50_NNPDF31_TuneCP5_13TeV-powheg-pythia8/MINIAODSIM/102X_upgrade2018_realistic_v12-v1/100000/62F52903-CDB1-1646-B53F-56CAF526274E.root'
p77
aS'/store/mc/RunIIFall18MiniAOD/DYToEE_M-50_NNPDF31_TuneCP5_13TeV-powheg-pythia8/MINIAODSIM/102X_upgrade2018_realistic_v12-v1/100000/5EB34303-FC99-E540-91FC-5E495B8ADCD5.root'
p78
aS'/store/mc/RunIIFall18MiniAOD/DYToEE_M-50_NNPDF31_TuneCP5_13TeV-powheg-pythia8/MINIAODSIM/102X_upgrade2018_realistic_v12-v1/100000/4ADB8931-A132-1444-B96C-B1C601586447.root'
p79
aS'/store/mc/RunIIFall18MiniAOD/DYToEE_M-50_NNPDF31_TuneCP5_13TeV-powheg-pythia8/MINIAODSIM/102X_upgrade2018_realistic_v12-v1/100000/744ADB79-D92E-9E43-ADA3-78C8BB8E42D5.root'
p80
aS'/store/mc/RunIIFall18MiniAOD/DYToEE_M-50_NNPDF31_TuneCP5_13TeV-powheg-pythia8/MINIAODSIM/102X_upgrade2018_realistic_v12-v1/100000/C6DCB7BD-9DDF-C247-9609-78F73FAFDE66.root'
p81
aS'/store/mc/RunIIFall18MiniAOD/DYToEE_M-50_NNPDF31_TuneCP5_13TeV-powheg-pythia8/MINIAODSIM/102X_upgrade2018_realistic_v12-v1/100000/8E8D4EBB-ED3A-1C40-AB7E-45218E6578D5.root'
p82
aS'/store/mc/RunIIFall18MiniAOD/DYToEE_M-50_NNPDF31_TuneCP5_13TeV-powheg-pythia8/MINIAODSIM/102X_upgrade2018_realistic_v12-v1/100000/43A16C5C-AEED-414B-9793-A089EAA9A3C5.root'
p83
aS'/store/mc/RunIIFall18MiniAOD/DYToEE_M-50_NNPDF31_TuneCP5_13TeV-powheg-pythia8/MINIAODSIM/102X_upgrade2018_realistic_v12-v1/100000/B152EA91-C868-D84B-BAE5-16D2AA89E03A.root'
p84
aS'/store/mc/RunIIFall18MiniAOD/DYToEE_M-50_NNPDF31_TuneCP5_13TeV-powheg-pythia8/MINIAODSIM/102X_upgrade2018_realistic_v12-v1/100000/2C56DC4C-DE43-4A43-B4AD-212E528F2E70.root'
p85
aS'/store/mc/RunIIFall18MiniAOD/DYToEE_M-50_NNPDF31_TuneCP5_13TeV-powheg-pythia8/MINIAODSIM/102X_upgrade2018_realistic_v12-v1/100000/428D73AF-167D-5D46-874B-6F8555B20E0E.root'
p86
aS'/store/mc/RunIIFall18MiniAOD/DYToEE_M-50_NNPDF31_TuneCP5_13TeV-powheg-pythia8/MINIAODSIM/102X_upgrade2018_realistic_v12-v1/100000/9E808C03-EE13-5843-BF79-68D22EBD40D3.root'
p87
aS'/store/mc/RunIIFall18MiniAOD/DYToEE_M-50_NNPDF31_TuneCP5_13TeV-powheg-pythia8/MINIAODSIM/102X_upgrade2018_realistic_v12-v1/100000/896640F1-5CD7-F64B-BCB8-09989DB322F1.root'
p88
aS'/store/mc/RunIIFall18MiniAOD/DYToEE_M-50_NNPDF31_TuneCP5_13TeV-powheg-pythia8/MINIAODSIM/102X_upgrade2018_realistic_v12-v1/100000/03032758-1168-EC49-B08D-CAC83AAAE241.root'
p89
aS'/store/mc/RunIIFall18MiniAOD/DYToEE_M-50_NNPDF31_TuneCP5_13TeV-powheg-pythia8/MINIAODSIM/102X_upgrade2018_realistic_v12-v1/100000/F475B927-D04C-034C-8AD3-F81D88CB1550.root'
p90
aS'/store/mc/RunIIFall18MiniAOD/DYToEE_M-50_NNPDF31_TuneCP5_13TeV-powheg-pythia8/MINIAODSIM/102X_upgrade2018_realistic_v12-v1/100000/5DA4F778-7C97-8340-A5FC-EADD17C3C9E7.root'
p91
aS'/store/mc/RunIIFall18MiniAOD/DYToEE_M-50_NNPDF31_TuneCP5_13TeV-powheg-pythia8/MINIAODSIM/102X_upgrade2018_realistic_v12-v1/100000/6A5E88D9-5DD7-8D4F-B0A8-30FAD68DDDB5.root'
p92
aS'/store/mc/RunIIFall18MiniAOD/DYToEE_M-50_NNPDF31_TuneCP5_13TeV-powheg-pythia8/MINIAODSIM/102X_upgrade2018_realistic_v12-v1/100000/558122F6-A309-8341-810C-86EB3162FEC4.root'
p93
aS'/store/mc/RunIIFall18MiniAOD/DYToEE_M-50_NNPDF31_TuneCP5_13TeV-powheg-pythia8/MINIAODSIM/102X_upgrade2018_realistic_v12-v1/100000/7D3DECDE-B3EB-514E-9152-A3D49302E301.root'
p94
aS'/store/mc/RunIIFall18MiniAOD/DYToEE_M-50_NNPDF31_TuneCP5_13TeV-powheg-pythia8/MINIAODSIM/102X_upgrade2018_realistic_v12-v1/100000/8104539A-CF5A-7443-896D-251D46B306CA.root'
p95
aS'/store/mc/RunIIFall18MiniAOD/DYToEE_M-50_NNPDF31_TuneCP5_13TeV-powheg-pythia8/MINIAODSIM/102X_upgrade2018_realistic_v12-v1/100000/0AD55C58-FB49-B549-8459-FA3AE94A63BC.root'
p96
aS'/store/mc/RunIIFall18MiniAOD/DYToEE_M-50_NNPDF31_TuneCP5_13TeV-powheg-pythia8/MINIAODSIM/102X_upgrade2018_realistic_v12-v1/100000/CB636577-7E8B-9E48-B68E-1F50072D6563.root'
p97
aS'/store/mc/RunIIFall18MiniAOD/DYToEE_M-50_NNPDF31_TuneCP5_13TeV-powheg-pythia8/MINIAODSIM/102X_upgrade2018_realistic_v12-v1/100000/84D347B9-1972-6044-A660-F5E9E728180E.root'
p98
aS'/store/mc/RunIIFall18MiniAOD/DYToEE_M-50_NNPDF31_TuneCP5_13TeV-powheg-pythia8/MINIAODSIM/102X_upgrade2018_realistic_v12-v1/100000/30122824-F2A0-F046-B3B9-D4E351FF3617.root'
p99
aS'/store/mc/RunIIFall18MiniAOD/DYToEE_M-50_NNPDF31_TuneCP5_13TeV-powheg-pythia8/MINIAODSIM/102X_upgrade2018_realistic_v12-v1/100000/7B04DBE9-E581-1242-95FB-8AF5999677FD.root'
p100
aS'/store/mc/RunIIFall18MiniAOD/DYToEE_M-50_NNPDF31_TuneCP5_13TeV-powheg-pythia8/MINIAODSIM/102X_upgrade2018_realistic_v12-v1/100000/020CC4BC-3CB0-D54F-BDB0-61C27F0074F1.root'
p101
aS'/store/mc/RunIIFall18MiniAOD/DYToEE_M-50_NNPDF31_TuneCP5_13TeV-powheg-pythia8/MINIAODSIM/102X_upgrade2018_realistic_v12-v1/100000/773C3033-C06A-9745-8584-B6E2C94C6818.root'
p102
aS'/store/mc/RunIIFall18MiniAOD/DYToEE_M-50_NNPDF31_TuneCP5_13TeV-powheg-pythia8/MINIAODSIM/102X_upgrade2018_realistic_v12-v1/100000/4ADD9727-7FCA-1E40-8084-EE5A4BF08C39.root'
p103
aS'/store/mc/RunIIFall18MiniAOD/DYToEE_M-50_NNPDF31_TuneCP5_13TeV-powheg-pythia8/MINIAODSIM/102X_upgrade2018_realistic_v12-v1/100000/D622E92C-454E-2645-8DBF-CE7F0717808E.root'
p104
aS'/store/mc/RunIIFall18MiniAOD/DYToEE_M-50_NNPDF31_TuneCP5_13TeV-powheg-pythia8/MINIAODSIM/102X_upgrade2018_realistic_v12-v1/100000/61E07D67-1D2A-0540-ABDE-5B703299FA71.root'
p105
aS'/store/mc/RunIIFall18MiniAOD/DYToEE_M-50_NNPDF31_TuneCP5_13TeV-powheg-pythia8/MINIAODSIM/102X_upgrade2018_realistic_v12-v1/100000/C942D0A1-A26F-BF4F-9D16-2A0F7689A110.root'
p106
aS'/store/mc/RunIIFall18MiniAOD/DYToEE_M-50_NNPDF31_TuneCP5_13TeV-powheg-pythia8/MINIAODSIM/102X_upgrade2018_realistic_v12-v1/100000/1304B735-4093-7A42-BED3-13F5FDD472DA.root'
p107
aS'/store/mc/RunIIFall18MiniAOD/DYToEE_M-50_NNPDF31_TuneCP5_13TeV-powheg-pythia8/MINIAODSIM/102X_upgrade2018_realistic_v12-v1/100000/230EE5B7-F2BD-B14B-A266-BC9A72B8BD61.root'
p108
aS'/store/mc/RunIIFall18MiniAOD/DYToEE_M-50_NNPDF31_TuneCP5_13TeV-powheg-pythia8/MINIAODSIM/102X_upgrade2018_realistic_v12-v1/100000/F74425B0-175B-2D41-AF01-B4DA71BB58A1.root'
p109
aS'/store/mc/RunIIFall18MiniAOD/DYToEE_M-50_NNPDF31_TuneCP5_13TeV-powheg-pythia8/MINIAODSIM/102X_upgrade2018_realistic_v12-v1/100000/28CB517C-FD46-744D-8988-32D53B4B9AF7.root'
p110
aS'/store/mc/RunIIFall18MiniAOD/DYToEE_M-50_NNPDF31_TuneCP5_13TeV-powheg-pythia8/MINIAODSIM/102X_upgrade2018_realistic_v12-v1/100000/EB2E6E3F-5374-E540-A1E5-4EF9FCA9CD0E.root'
p111
aS'/store/mc/RunIIFall18MiniAOD/DYToEE_M-50_NNPDF31_TuneCP5_13TeV-powheg-pythia8/MINIAODSIM/102X_upgrade2018_realistic_v12-v1/100000/37E06BBD-79DB-6F46-BB36-6D228A56DDED.root'
p112
aS'/store/mc/RunIIFall18MiniAOD/DYToEE_M-50_NNPDF31_TuneCP5_13TeV-powheg-pythia8/MINIAODSIM/102X_upgrade2018_realistic_v12-v1/100000/38098C82-8914-ED47-8630-F0C8C82189B2.root'
p113
aS'/store/mc/RunIIFall18MiniAOD/DYToEE_M-50_NNPDF31_TuneCP5_13TeV-powheg-pythia8/MINIAODSIM/102X_upgrade2018_realistic_v12-v1/100000/833668A0-2759-B649-A075-C73090FBC053.root'
p114
aS'/store/mc/RunIIFall18MiniAOD/DYToEE_M-50_NNPDF31_TuneCP5_13TeV-powheg-pythia8/MINIAODSIM/102X_upgrade2018_realistic_v12-v1/100000/6C0731CC-EB0A-EF46-8ADC-0A4E666B6D16.root'
p115
aS'/store/mc/RunIIFall18MiniAOD/DYToEE_M-50_NNPDF31_TuneCP5_13TeV-powheg-pythia8/MINIAODSIM/102X_upgrade2018_realistic_v12-v1/100000/7D15CC5D-0EEB-4D40-92AB-DFB94B152C17.root'
p116
aS'/store/mc/RunIIFall18MiniAOD/DYToEE_M-50_NNPDF31_TuneCP5_13TeV-powheg-pythia8/MINIAODSIM/102X_upgrade2018_realistic_v12-v1/100000/EF69E68A-6CC6-0945-8F8A-49BA4DC3C3EE.root'
p117
aS'/store/mc/RunIIFall18MiniAOD/DYToEE_M-50_NNPDF31_TuneCP5_13TeV-powheg-pythia8/MINIAODSIM/102X_upgrade2018_realistic_v12-v1/100000/0EB4E0A2-5585-664B-8B72-1D8CEE730953.root'
p118
aS'/store/mc/RunIIFall18MiniAOD/DYToEE_M-50_NNPDF31_TuneCP5_13TeV-powheg-pythia8/MINIAODSIM/102X_upgrade2018_realistic_v12-v1/100000/65578141-DF66-0643-A0E8-63B1F17E28D6.root'
p119
aS'/store/mc/RunIIFall18MiniAOD/DYToEE_M-50_NNPDF31_TuneCP5_13TeV-powheg-pythia8/MINIAODSIM/102X_upgrade2018_realistic_v12-v1/100000/AB2881C5-6F89-C14E-94D5-A7A48BB7E41B.root'
p120
aS'/store/mc/RunIIFall18MiniAOD/DYToEE_M-50_NNPDF31_TuneCP5_13TeV-powheg-pythia8/MINIAODSIM/102X_upgrade2018_realistic_v12-v1/100000/DB6F02A5-6C98-D948-94E9-A90503ED5F93.root'
p121
aS'/store/mc/RunIIFall18MiniAOD/DYToEE_M-50_NNPDF31_TuneCP5_13TeV-powheg-pythia8/MINIAODSIM/102X_upgrade2018_realistic_v12-v1/100000/7206BB37-FADC-074E-A840-019720196F09.root'
p122
aS'/store/mc/RunIIFall18MiniAOD/DYToEE_M-50_NNPDF31_TuneCP5_13TeV-powheg-pythia8/MINIAODSIM/102X_upgrade2018_realistic_v12-v1/100000/17ABF8F8-3F4E-A548-AAA2-699C6F7FE603.root'
p123
aS'/store/mc/RunIIFall18MiniAOD/DYToEE_M-50_NNPDF31_TuneCP5_13TeV-powheg-pythia8/MINIAODSIM/102X_upgrade2018_realistic_v12-v1/100000/785E8405-20E9-1547-91AD-A19B0982E996.root'
p124
aS'/store/mc/RunIIFall18MiniAOD/DYToEE_M-50_NNPDF31_TuneCP5_13TeV-powheg-pythia8/MINIAODSIM/102X_upgrade2018_realistic_v12-v1/100000/2BD8ED4B-DE24-B24A-A7BD-59A20D786813.root'
p125
aS'/store/mc/RunIIFall18MiniAOD/DYToEE_M-50_NNPDF31_TuneCP5_13TeV-powheg-pythia8/MINIAODSIM/102X_upgrade2018_realistic_v12-v1/100000/82FAE7C4-5762-4F49-BFDB-3E57A827BE78.root'
p126
aS'/store/mc/RunIIFall18MiniAOD/DYToEE_M-50_NNPDF31_TuneCP5_13TeV-powheg-pythia8/MINIAODSIM/102X_upgrade2018_realistic_v12-v1/100000/BBA13DD7-6D95-9E4E-BB77-8FB890547BCA.root'
p127
aS'/store/mc/RunIIFall18MiniAOD/DYToEE_M-50_NNPDF31_TuneCP5_13TeV-powheg-pythia8/MINIAODSIM/102X_upgrade2018_realistic_v12-v1/100000/3692C6C7-1169-2343-BDA7-3E794DAD8427.root'
p128
aS'/store/mc/RunIIFall18MiniAOD/DYToEE_M-50_NNPDF31_TuneCP5_13TeV-powheg-pythia8/MINIAODSIM/102X_upgrade2018_realistic_v12-v1/100000/F4A3F4D5-23EA-8B48-8826-5290B35FFE71.root'
p129
aS'/store/mc/RunIIFall18MiniAOD/DYToEE_M-50_NNPDF31_TuneCP5_13TeV-powheg-pythia8/MINIAODSIM/102X_upgrade2018_realistic_v12-v1/100000/CBE60222-1ACF-4744-A6B3-86351DE25BAA.root'
p130
aS'/store/mc/RunIIFall18MiniAOD/DYToEE_M-50_NNPDF31_TuneCP5_13TeV-powheg-pythia8/MINIAODSIM/102X_upgrade2018_realistic_v12-v1/100000/ADCF2E3B-54BC-D143-8C3F-2C98951A8F47.root'
p131
aS'/store/mc/RunIIFall18MiniAOD/DYToEE_M-50_NNPDF31_TuneCP5_13TeV-powheg-pythia8/MINIAODSIM/102X_upgrade2018_realistic_v12-v1/100000/855479B3-6F7A-4642-A0D9-F5E6083BDC5E.root'
p132
aS'/store/mc/RunIIFall18MiniAOD/DYToEE_M-50_NNPDF31_TuneCP5_13TeV-powheg-pythia8/MINIAODSIM/102X_upgrade2018_realistic_v12-v1/100000/A1158F85-BE29-D04A-B25A-72BE8EBE10F7.root'
p133
aS'/store/mc/RunIIFall18MiniAOD/DYToEE_M-50_NNPDF31_TuneCP5_13TeV-powheg-pythia8/MINIAODSIM/102X_upgrade2018_realistic_v12-v1/100000/13C236F8-5B23-4142-9BCD-595A949121BA.root'
p134
aS'/store/mc/RunIIFall18MiniAOD/DYToEE_M-50_NNPDF31_TuneCP5_13TeV-powheg-pythia8/MINIAODSIM/102X_upgrade2018_realistic_v12-v1/100000/281E2F54-1D52-D34C-AA90-9C46DD76457B.root'
p135
aS'/store/mc/RunIIFall18MiniAOD/DYToEE_M-50_NNPDF31_TuneCP5_13TeV-powheg-pythia8/MINIAODSIM/102X_upgrade2018_realistic_v12-v1/100000/C76C1A90-B768-6A47-AE52-8F15353B199C.root'
p136
aS'/store/mc/RunIIFall18MiniAOD/DYToEE_M-50_NNPDF31_TuneCP5_13TeV-powheg-pythia8/MINIAODSIM/102X_upgrade2018_realistic_v12-v1/100000/62EA236C-8EA2-6E46-9432-517D1B288C19.root'
p137
aS'/store/mc/RunIIFall18MiniAOD/DYToEE_M-50_NNPDF31_TuneCP5_13TeV-powheg-pythia8/MINIAODSIM/102X_upgrade2018_realistic_v12-v1/100000/97E09ECF-B7FF-D145-A8D1-7E9066CCEF5C.root'
p138
aS'/store/mc/RunIIFall18MiniAOD/DYToEE_M-50_NNPDF31_TuneCP5_13TeV-powheg-pythia8/MINIAODSIM/102X_upgrade2018_realistic_v12-v1/100000/D47E8DB4-9A9F-164B-884B-BD64C1E902F2.root'
p139
aS'/store/mc/RunIIFall18MiniAOD/DYToEE_M-50_NNPDF31_TuneCP5_13TeV-powheg-pythia8/MINIAODSIM/102X_upgrade2018_realistic_v12-v1/100000/C050F690-6E32-0842-9DF8-D191AC818B65.root'
p140
aS'/store/mc/RunIIFall18MiniAOD/DYToEE_M-50_NNPDF31_TuneCP5_13TeV-powheg-pythia8/MINIAODSIM/102X_upgrade2018_realistic_v12-v1/100000/92C711F0-A569-2C48-89C2-8B23A620C494.root'
p141
aS'/store/mc/RunIIFall18MiniAOD/DYToEE_M-50_NNPDF31_TuneCP5_13TeV-powheg-pythia8/MINIAODSIM/102X_upgrade2018_realistic_v12-v1/100000/D1573AAA-0428-DC48-82D8-197505D6E055.root'
p142
aS'/store/mc/RunIIFall18MiniAOD/DYToEE_M-50_NNPDF31_TuneCP5_13TeV-powheg-pythia8/MINIAODSIM/102X_upgrade2018_realistic_v12-v1/100000/58583607-A5AC-A347-BD61-88FDD12C9E33.root'
p143
aS'/store/mc/RunIIFall18MiniAOD/DYToEE_M-50_NNPDF31_TuneCP5_13TeV-powheg-pythia8/MINIAODSIM/102X_upgrade2018_realistic_v12-v1/100000/545115D7-4A68-FF47-9FBB-DBD4E730D948.root'
p144
aS'/store/mc/RunIIFall18MiniAOD/DYToEE_M-50_NNPDF31_TuneCP5_13TeV-powheg-pythia8/MINIAODSIM/102X_upgrade2018_realistic_v12-v1/100000/6A47408A-24DD-2A4E-947F-F841101ADFD9.root'
p145
aS'/store/mc/RunIIFall18MiniAOD/DYToEE_M-50_NNPDF31_TuneCP5_13TeV-powheg-pythia8/MINIAODSIM/102X_upgrade2018_realistic_v12-v1/100000/030F8E1D-E5F9-9347-9B4E-0A5466F876CD.root'
p146
aS'/store/mc/RunIIFall18MiniAOD/DYToEE_M-50_NNPDF31_TuneCP5_13TeV-powheg-pythia8/MINIAODSIM/102X_upgrade2018_realistic_v12-v1/100000/608FB1F5-EBE8-7E46-BE90-1489A4379BF3.root'
p147
aS'/store/mc/RunIIFall18MiniAOD/DYToEE_M-50_NNPDF31_TuneCP5_13TeV-powheg-pythia8/MINIAODSIM/102X_upgrade2018_realistic_v12-v1/100000/106ADFCB-856F-5245-B027-CC97DF4767B4.root'
p148
aS'/store/mc/RunIIFall18MiniAOD/DYToEE_M-50_NNPDF31_TuneCP5_13TeV-powheg-pythia8/MINIAODSIM/102X_upgrade2018_realistic_v12-v1/100000/8956E4C6-9EE0-1940-A9D4-A8AF6FB29C14.root'
p149
aS'/store/mc/RunIIFall18MiniAOD/DYToEE_M-50_NNPDF31_TuneCP5_13TeV-powheg-pythia8/MINIAODSIM/102X_upgrade2018_realistic_v12-v1/100000/81B3173E-700E-4844-8107-33205C16A78D.root'
p150
aS'/store/mc/RunIIFall18MiniAOD/DYToEE_M-50_NNPDF31_TuneCP5_13TeV-powheg-pythia8/MINIAODSIM/102X_upgrade2018_realistic_v12-v1/100000/4F3F5BF1-9800-774E-BFEF-3060A2D66A37.root'
p151
aS'/store/mc/RunIIFall18MiniAOD/DYToEE_M-50_NNPDF31_TuneCP5_13TeV-powheg-pythia8/MINIAODSIM/102X_upgrade2018_realistic_v12-v1/100000/FD22CB36-F128-2F4F-99BB-FDE3C9C50A46.root'
p152
aS'/store/mc/RunIIFall18MiniAOD/DYToEE_M-50_NNPDF31_TuneCP5_13TeV-powheg-pythia8/MINIAODSIM/102X_upgrade2018_realistic_v12-v1/100000/69BAA020-6338-494E-A5F5-7DFE27292A9B.root'
p153
aS'/store/mc/RunIIFall18MiniAOD/DYToEE_M-50_NNPDF31_TuneCP5_13TeV-powheg-pythia8/MINIAODSIM/102X_upgrade2018_realistic_v12-v1/100000/B1EB5983-3D5A-D244-AC10-A5BDA84DC85A.root'
p154
aS'/store/mc/RunIIFall18MiniAOD/DYToEE_M-50_NNPDF31_TuneCP5_13TeV-powheg-pythia8/MINIAODSIM/102X_upgrade2018_realistic_v12-v1/100000/6776AC3F-5C59-B344-8C29-C0CC66F180E7.root'
p155
aS'/store/mc/RunIIFall18MiniAOD/DYToEE_M-50_NNPDF31_TuneCP5_13TeV-powheg-pythia8/MINIAODSIM/102X_upgrade2018_realistic_v12-v1/100000/0C1A7CBA-072E-C44F-8408-9988044AFD24.root'
p156
aS'/store/mc/RunIIFall18MiniAOD/DYToEE_M-50_NNPDF31_TuneCP5_13TeV-powheg-pythia8/MINIAODSIM/102X_upgrade2018_realistic_v12-v1/100000/6E4407C4-E970-1E40-8CE6-0F0F6AA6CC48.root'
p157
aS'/store/mc/RunIIFall18MiniAOD/DYToEE_M-50_NNPDF31_TuneCP5_13TeV-powheg-pythia8/MINIAODSIM/102X_upgrade2018_realistic_v12-v1/100000/447842D1-DFDF-0847-9D1C-E2BAB9A20B48.root'
p158
aS'/store/mc/RunIIFall18MiniAOD/DYToEE_M-50_NNPDF31_TuneCP5_13TeV-powheg-pythia8/MINIAODSIM/102X_upgrade2018_realistic_v12-v1/100000/ED588B4B-E413-D247-B587-5ACC7459510E.root'
p159
aS'/store/mc/RunIIFall18MiniAOD/DYToEE_M-50_NNPDF31_TuneCP5_13TeV-powheg-pythia8/MINIAODSIM/102X_upgrade2018_realistic_v12-v1/100000/9F5F384F-3667-3641-BA9D-302ABE5747A3.root'
p160
aS'/store/mc/RunIIFall18MiniAOD/DYToEE_M-50_NNPDF31_TuneCP5_13TeV-powheg-pythia8/MINIAODSIM/102X_upgrade2018_realistic_v12-v1/100000/3555DC07-B71D-B64A-8656-44D7098E97C3.root'
p161
aS'/store/mc/RunIIFall18MiniAOD/DYToEE_M-50_NNPDF31_TuneCP5_13TeV-powheg-pythia8/MINIAODSIM/102X_upgrade2018_realistic_v12-v1/100000/718D6E3C-9458-ED45-80FC-919F6375E60A.root'
p162
aS'/store/mc/RunIIFall18MiniAOD/DYToEE_M-50_NNPDF31_TuneCP5_13TeV-powheg-pythia8/MINIAODSIM/102X_upgrade2018_realistic_v12-v1/100000/F9CE7F78-C0D7-AB4F-B5E6-E2279B7A43DC.root'
p163
aS'/store/mc/RunIIFall18MiniAOD/DYToEE_M-50_NNPDF31_TuneCP5_13TeV-powheg-pythia8/MINIAODSIM/102X_upgrade2018_realistic_v12-v1/100000/3C83E354-B94D-EB4F-AE91-0180B299656A.root'
p164
aS'/store/mc/RunIIFall18MiniAOD/DYToEE_M-50_NNPDF31_TuneCP5_13TeV-powheg-pythia8/MINIAODSIM/102X_upgrade2018_realistic_v12-v1/100000/127E19DB-6FC1-9148-A8CF-935FB56A0BB4.root'
p165
aS'/store/mc/RunIIFall18MiniAOD/DYToEE_M-50_NNPDF31_TuneCP5_13TeV-powheg-pythia8/MINIAODSIM/102X_upgrade2018_realistic_v12-v1/100000/366A47F9-9A6F-6D4C-BB26-867829E97A83.root'
p166
aS'/store/mc/RunIIFall18MiniAOD/DYToEE_M-50_NNPDF31_TuneCP5_13TeV-powheg-pythia8/MINIAODSIM/102X_upgrade2018_realistic_v12-v1/100000/57423CC6-8DD7-614F-84E2-82F3987586F1.root'
p167
aS'/store/mc/RunIIFall18MiniAOD/DYToEE_M-50_NNPDF31_TuneCP5_13TeV-powheg-pythia8/MINIAODSIM/102X_upgrade2018_realistic_v12-v1/100000/D0D23D85-57AB-4949-96A5-40E59478FDFF.root'
p168
aS'/store/mc/RunIIFall18MiniAOD/DYToEE_M-50_NNPDF31_TuneCP5_13TeV-powheg-pythia8/MINIAODSIM/102X_upgrade2018_realistic_v12-v1/100000/7CE61B08-2E9D-9C4F-BA3A-201302D66B83.root'
p169
aS'/store/mc/RunIIFall18MiniAOD/DYToEE_M-50_NNPDF31_TuneCP5_13TeV-powheg-pythia8/MINIAODSIM/102X_upgrade2018_realistic_v12-v1/100000/62DE5C36-4D12-8046-9B9F-01A763DD59A8.root'
p170
aS'/store/mc/RunIIFall18MiniAOD/DYToEE_M-50_NNPDF31_TuneCP5_13TeV-powheg-pythia8/MINIAODSIM/102X_upgrade2018_realistic_v12-v1/100000/0316C552-A2CB-0D41-B89D-B1DE13A18BA0.root'
p171
aS'/store/mc/RunIIFall18MiniAOD/DYToEE_M-50_NNPDF31_TuneCP5_13TeV-powheg-pythia8/MINIAODSIM/102X_upgrade2018_realistic_v12-v1/100000/9BB551EF-EB0B-F640-9CD7-483D29418DC7.root'
p172
aS'/store/mc/RunIIFall18MiniAOD/DYToEE_M-50_NNPDF31_TuneCP5_13TeV-powheg-pythia8/MINIAODSIM/102X_upgrade2018_realistic_v12-v1/100000/6DCD3160-52F5-9E44-A511-E6691C578922.root'
p173
aS'/store/mc/RunIIFall18MiniAOD/DYToEE_M-50_NNPDF31_TuneCP5_13TeV-powheg-pythia8/MINIAODSIM/102X_upgrade2018_realistic_v12-v1/100000/C3C2D12F-3B84-E741-AFAD-1FC2387077DB.root'
p174
aS'/store/mc/RunIIFall18MiniAOD/DYToEE_M-50_NNPDF31_TuneCP5_13TeV-powheg-pythia8/MINIAODSIM/102X_upgrade2018_realistic_v12-v1/100000/A86AB478-A14F-0E41-8861-7FCBC2E59983.root'
p175
aS'/store/mc/RunIIFall18MiniAOD/DYToEE_M-50_NNPDF31_TuneCP5_13TeV-powheg-pythia8/MINIAODSIM/102X_upgrade2018_realistic_v12-v1/100000/8FD431D8-BBBF-994D-81C2-83B3D840751F.root'
p176
aS'/store/mc/RunIIFall18MiniAOD/DYToEE_M-50_NNPDF31_TuneCP5_13TeV-powheg-pythia8/MINIAODSIM/102X_upgrade2018_realistic_v12-v1/100000/27F5A2F3-7D87-B548-85D8-9D3B7182A677.root'
p177
aS'/store/mc/RunIIFall18MiniAOD/DYToEE_M-50_NNPDF31_TuneCP5_13TeV-powheg-pythia8/MINIAODSIM/102X_upgrade2018_realistic_v12-v1/100000/143F3CEF-D7D2-BC4E-8862-7FF6ECB5AD38.root'
p178
aS'/store/mc/RunIIFall18MiniAOD/DYToEE_M-50_NNPDF31_TuneCP5_13TeV-powheg-pythia8/MINIAODSIM/102X_upgrade2018_realistic_v12-v1/100000/15E2297A-CB96-7C4D-B7EF-953880034087.root'
p179
aS'/store/mc/RunIIFall18MiniAOD/DYToEE_M-50_NNPDF31_TuneCP5_13TeV-powheg-pythia8/MINIAODSIM/102X_upgrade2018_realistic_v12-v1/100000/D7555354-945E-4F46-9800-5C7B43017AF3.root'
p180
aS'/store/mc/RunIIFall18MiniAOD/DYToEE_M-50_NNPDF31_TuneCP5_13TeV-powheg-pythia8/MINIAODSIM/102X_upgrade2018_realistic_v12-v1/100000/BF3A7165-69B2-FD4B-9EFB-92C3010C38EB.root'
p181
aS'/store/mc/RunIIFall18MiniAOD/DYToEE_M-50_NNPDF31_TuneCP5_13TeV-powheg-pythia8/MINIAODSIM/102X_upgrade2018_realistic_v12-v1/100000/3A888001-FCAD-8042-B03A-8550225E6259.root'
p182
aS'/store/mc/RunIIFall18MiniAOD/DYToEE_M-50_NNPDF31_TuneCP5_13TeV-powheg-pythia8/MINIAODSIM/102X_upgrade2018_realistic_v12-v1/100000/5FF4A14A-E96F-F04C-ACC3-7DCAB4E4426E.root'
p183
aS'/store/mc/RunIIFall18MiniAOD/DYToEE_M-50_NNPDF31_TuneCP5_13TeV-powheg-pythia8/MINIAODSIM/102X_upgrade2018_realistic_v12-v1/100000/2B4516F6-2975-964D-8472-99BE05601350.root'
p184
aS'/store/mc/RunIIFall18MiniAOD/DYToEE_M-50_NNPDF31_TuneCP5_13TeV-powheg-pythia8/MINIAODSIM/102X_upgrade2018_realistic_v12-v1/100000/C1ECD831-D245-A84E-ADA8-C872C582265B.root'
p185
aS'/store/mc/RunIIFall18MiniAOD/DYToEE_M-50_NNPDF31_TuneCP5_13TeV-powheg-pythia8/MINIAODSIM/102X_upgrade2018_realistic_v12-v1/100000/89D1AC6F-5B89-D544-A2B0-95E5021C508C.root'
p186
aS'/store/mc/RunIIFall18MiniAOD/DYToEE_M-50_NNPDF31_TuneCP5_13TeV-powheg-pythia8/MINIAODSIM/102X_upgrade2018_realistic_v12-v1/100000/B89BDAF8-D9A7-B24B-B43F-658CACDA77DE.root'
p187
aS'/store/mc/RunIIFall18MiniAOD/DYToEE_M-50_NNPDF31_TuneCP5_13TeV-powheg-pythia8/MINIAODSIM/102X_upgrade2018_realistic_v12-v1/100000/3BFF1DA9-D3A3-1645-8869-922AFA566CF8.root'
p188
aS'/store/mc/RunIIFall18MiniAOD/DYToEE_M-50_NNPDF31_TuneCP5_13TeV-powheg-pythia8/MINIAODSIM/102X_upgrade2018_realistic_v12-v1/100000/2101BDAC-BDD1-5F41-A5CF-A6468ECBA5D6.root'
p189
aS'/store/mc/RunIIFall18MiniAOD/DYToEE_M-50_NNPDF31_TuneCP5_13TeV-powheg-pythia8/MINIAODSIM/102X_upgrade2018_realistic_v12-v1/100000/032DF30E-9254-1D4B-9E42-9187B0483A93.root'
p190
aS'/store/mc/RunIIFall18MiniAOD/DYToEE_M-50_NNPDF31_TuneCP5_13TeV-powheg-pythia8/MINIAODSIM/102X_upgrade2018_realistic_v12-v1/100000/2A374D5C-AE1D-884C-9030-7C426CA979BE.root'
p191
aS'/store/mc/RunIIFall18MiniAOD/DYToEE_M-50_NNPDF31_TuneCP5_13TeV-powheg-pythia8/MINIAODSIM/102X_upgrade2018_realistic_v12-v1/100000/C7B12F80-4552-7848-A27F-31C42BD3DF66.root'
p192
aS'/store/mc/RunIIFall18MiniAOD/DYToEE_M-50_NNPDF31_TuneCP5_13TeV-powheg-pythia8/MINIAODSIM/102X_upgrade2018_realistic_v12-v1/100000/70C33707-8CCD-6D43-B7A4-C5A1B2BC8577.root'
p193
aS'/store/mc/RunIIFall18MiniAOD/DYToEE_M-50_NNPDF31_TuneCP5_13TeV-powheg-pythia8/MINIAODSIM/102X_upgrade2018_realistic_v12-v1/100000/6554FADF-38B0-2540-B883-39430F3AAA7D.root'
p194
aS'/store/mc/RunIIFall18MiniAOD/DYToEE_M-50_NNPDF31_TuneCP5_13TeV-powheg-pythia8/MINIAODSIM/102X_upgrade2018_realistic_v12-v1/100000/0F4BE309-C125-824E-AE7E-1C92E7226A39.root'
p195
aS'/store/mc/RunIIFall18MiniAOD/DYToEE_M-50_NNPDF31_TuneCP5_13TeV-powheg-pythia8/MINIAODSIM/102X_upgrade2018_realistic_v12-v1/100000/95C54A75-EC30-394E-8CA4-E692CEECB611.root'
p196
aS'/store/mc/RunIIFall18MiniAOD/DYToEE_M-50_NNPDF31_TuneCP5_13TeV-powheg-pythia8/MINIAODSIM/102X_upgrade2018_realistic_v12-v1/100000/FA4E6890-26BD-F443-9016-614958AE83CC.root'
p197
aS'/store/mc/RunIIFall18MiniAOD/DYToEE_M-50_NNPDF31_TuneCP5_13TeV-powheg-pythia8/MINIAODSIM/102X_upgrade2018_realistic_v12-v1/100000/030334CE-9A25-0F4C-A945-B6F36171BB78.root'
p198
aS'/store/mc/RunIIFall18MiniAOD/DYToEE_M-50_NNPDF31_TuneCP5_13TeV-powheg-pythia8/MINIAODSIM/102X_upgrade2018_realistic_v12-v1/100000/269C2004-3721-4E4E-9D44-35ADB8E89974.root'
p199
aS'/store/mc/RunIIFall18MiniAOD/DYToEE_M-50_NNPDF31_TuneCP5_13TeV-powheg-pythia8/MINIAODSIM/102X_upgrade2018_realistic_v12-v1/100000/0FCDAFC9-28EA-A142-BEF0-57CE2C4D738D.root'
p200
aS'/store/mc/RunIIFall18MiniAOD/DYToEE_M-50_NNPDF31_TuneCP5_13TeV-powheg-pythia8/MINIAODSIM/102X_upgrade2018_realistic_v12-v1/100000/D1D7A8F8-FF2E-C84A-866A-9DB08043A15D.root'
p201
aS'/store/mc/RunIIFall18MiniAOD/DYToEE_M-50_NNPDF31_TuneCP5_13TeV-powheg-pythia8/MINIAODSIM/102X_upgrade2018_realistic_v12-v1/100000/4B21DBBF-C1D6-4846-8159-9D89126619D2.root'
p202
aS'/store/mc/RunIIFall18MiniAOD/DYToEE_M-50_NNPDF31_TuneCP5_13TeV-powheg-pythia8/MINIAODSIM/102X_upgrade2018_realistic_v12-v1/100000/5D1D14FB-5BB2-1143-820B-9EFE78ECB43C.root'
p203
aS'/store/mc/RunIIFall18MiniAOD/DYToEE_M-50_NNPDF31_TuneCP5_13TeV-powheg-pythia8/MINIAODSIM/102X_upgrade2018_realistic_v12-v1/100000/FF1D2C19-FC0B-9B46-BEA9-C67B2F56E476.root'
p204
aS'/store/mc/RunIIFall18MiniAOD/DYToEE_M-50_NNPDF31_TuneCP5_13TeV-powheg-pythia8/MINIAODSIM/102X_upgrade2018_realistic_v12-v1/100000/20DBA941-2908-3348-BE5B-7CFFFA924EC5.root'
p205
aS'/store/mc/RunIIFall18MiniAOD/DYToEE_M-50_NNPDF31_TuneCP5_13TeV-powheg-pythia8/MINIAODSIM/102X_upgrade2018_realistic_v12-v1/100000/616D3FC0-39D2-774D-BDED-BC3607DEBA38.root'
p206
aS'/store/mc/RunIIFall18MiniAOD/DYToEE_M-50_NNPDF31_TuneCP5_13TeV-powheg-pythia8/MINIAODSIM/102X_upgrade2018_realistic_v12-v1/100000/EBF0C3F8-5A73-1E42-AF65-D42DDEACB5FD.root'
p207
aS'/store/mc/RunIIFall18MiniAOD/DYToEE_M-50_NNPDF31_TuneCP5_13TeV-powheg-pythia8/MINIAODSIM/102X_upgrade2018_realistic_v12-v1/100000/92F3693D-45DA-5F48-922D-2A5121C74B08.root'
p208
aS'/store/mc/RunIIFall18MiniAOD/DYToEE_M-50_NNPDF31_TuneCP5_13TeV-powheg-pythia8/MINIAODSIM/102X_upgrade2018_realistic_v12-v1/100000/4EEB0F59-74E9-544A-9152-C48DBCD423D4.root'
p209
aS'/store/mc/RunIIFall18MiniAOD/DYToEE_M-50_NNPDF31_TuneCP5_13TeV-powheg-pythia8/MINIAODSIM/102X_upgrade2018_realistic_v12-v1/100000/047D9911-31B2-B249-BBD4-4D4C79738EB4.root'
p210
asg65
I00
sbsg29
g3
(g9
g5
NtRp211
(dp212
g12
I00
sS'pyCfgParams'
p213
(lp214
S'isMC=True'
p215
aS'doEleID=True'
p216
aS'doPhoID=True'
p217
aS'doTrigger=True'
p218
aS'doRECO=True'
p219
aS'isAOD=True'
p220
aS'GT=102X_upgrade2018_realistic_v12'
p221
asg13
S''
sg14
g15
((lp222
S'psetName'
p223
aS'pluginName'
p224
ag213
aS'sendExternalFolder'
p225
atRp226
sg19
g29
sg20
(dp227
sg224
S'Analysis'
p228
sg22
g15
((ltRp229
sg223
S'/afs/cern.ch/work/s/soffi/EGM-WORK/CMSSW-102502018DataTnP/src/EgammaAnalysis/TnPTreeProducer/python/TnPTreeProducer_cfg.py'
p230
sg25
Nsg225
I01
sbsbsS'voGroup'
p231
S''
sS'Server'
p232
S'cmsweb.cern.ch'
p233
sS'instance'
p234
S'prod'
p235
sS'RequestName'
p236
V180920_114702:soffi_crab_DYToEE_M-50_NNPDF31_TuneCP5_13TeV-powheg-pythia8
p237
sS'voRole'
p238
S'NULL'
p239
sS'Port'
p240
S''
s.