(dp1
S'OriginalConfig'
p2
ccopy_reg
_reconstructor
p3
(cWMCore.Configuration
Configuration
p4
c__builtin__
object
p5
NtRp6
(dp7
S'Site'
p8
g3
(cWMCore.Configuration
ConfigSection
p9
g5
NtRp10
(dp11
S'_internal_skipChecks'
p12
I00
sS'_internal_documentation'
p13
S''
sS'_internal_settings'
p14
c__builtin__
set
p15
((lp16
S'storageSite'
p17
atRp18
sS'_internal_name'
p19
g8
sS'_internal_docstrings'
p20
(dp21
sS'_internal_children'
p22
g15
((ltRp23
sg17
S'T2_CH_CERN'
p24
sS'_internal_parent_ref'
p25
NsbsS'_internal_sections'
p26
(lp27
S'General'
p28
aS'JobType'
p29
aS'Data'
p30
ag8
aS'User'
p31
aS'Debug'
p32
asg28
g3
(g9
g5
NtRp33
(dp34
S'workArea'
p35
S'crab_2018Data_1'
p36
sg12
I00
sg13
S''
sg14
g15
((lp37
g35
aS'transferLogs'
p38
aS'requestName'
p39
atRp40
sg19
g28
sg20
(dp41
sg22
g15
((ltRp42
sg39
S'Prompt2018_RunA_v2'
p43
sg25
Nsg38
I00
sbsS'_internal_webapps'
p44
(lp45
sg31
g3
(g9
g5
NtRp46
(dp47
g12
I00
sg13
S''
sg14
g15
((ltRp48
sg19
g31
sg20
(dp49
sg22
g15
((ltRp50
sg25
NsbsS'_internal_components'
p51
(lp52
sg32
g3
(g9
g5
NtRp53
(dp54
g12
I00
sg13
S''
sg14
g15
((ltRp55
sg19
g32
sg20
(dp56
sg22
g15
((ltRp57
sg25
Nsbsg30
g3
(g9
g5
NtRp58
(dp59
S'inputDataset'
p60
S'/EGamma/Run2018A-PromptReco-v2/AOD'
p61
sS'allowNonValidInputDataset'
p62
I01
sg12
I00
sg13
S''
sg14
g15
((lp63
g60
ag62
aS'inputDBS'
p64
aS'publication'
p65
atRp66
sg19
g30
sg64
S'global'
p67
sg20
(dp68
sg22
g15
((ltRp69
sg25
Nsg65
I00
sbsg29
g3
(g9
g5
NtRp70
(dp71
g12
I00
sg13
S''
sg14
g15
((lp72
S'psetName'
p73
aS'pluginName'
p74
aS'sendExternalFolder'
p75
atRp76
sg19
g29
sg20
(dp77
sg74
S'Analysis'
p78
sg22
g15
((ltRp79
sg73
S'/afs/cern.ch/work/s/soffi/EGM-WORK/CMSSW-102502018DataTnP/src/EgammaAnalysis/TnPTreeProducer/python/TnPTreeProducer_cfg.py'
p80
sg25
Nsg75
I01
sbsbsS'voGroup'
p81
S''
sS'Server'
p82
S'cmsweb.cern.ch'
p83
sS'instance'
p84
S'prod'
p85
sS'RequestName'
p86
V180921_202152:soffi_crab_Prompt2018_RunA_v2
p87
sS'voRole'
p88
S'NULL'
p89
sS'Port'
p90
S''
s.